
Allocating common symbols
Common symbol       size              file

uart_tx_buf         0x106             CMakeFiles/kiibohd.elf.dir/Scan/UARTConnect/connect_scan.c.o
Connect_receive_RemoteCapabilityBuffer
                    0x6               CMakeFiles/kiibohd.elf.dir/Scan/UARTConnect/connect_scan.c.o
CLIHexDebugMode     0x1               CMakeFiles/kiibohd.elf.dir/main.c.o
CLIHistoryCurrent   0x1               CMakeFiles/kiibohd.elf.dir/main.c.o
usb_rx_byte_count_data
                    0x10              CMakeFiles/kiibohd.elf.dir/Output/pjrcUSB/arm/usb_dev.c.o
CLILEDState         0x1               CMakeFiles/kiibohd.elf.dir/main.c.o
CLIDictionariesUsed
                    0x1               CMakeFiles/kiibohd.elf.dir/main.c.o
Macro_rotationLayer
                    0x2               CMakeFiles/kiibohd.elf.dir/Macro/PartialMap/macro.c.o
CLIHistoryBuffer    0x3e8             CMakeFiles/kiibohd.elf.dir/main.c.o
uart_tx_status      0x4               CMakeFiles/kiibohd.elf.dir/Scan/UARTConnect/connect_scan.c.o
USBKeys_SysCtrl     0x1               CMakeFiles/kiibohd.elf.dir/Output/pjrcUSB/output_com.c.o
Matrix_scanArray    0x13b             CMakeFiles/kiibohd.elf.dir/Scan/MatrixARM/matrix_scan.c.o
CLILineBuffer       0x65              CMakeFiles/kiibohd.elf.dir/main.c.o
I2C_RxBufferPtr     0x12c             CMakeFiles/kiibohd.elf.dir/Scan/ISSILed/led_scan.c.o
macroTriggerListBuffer
                    0x10b             CMakeFiles/kiibohd.elf.dir/Macro/PartialMap/macro.c.o
ResultMacroRecordList
                    0x150             CMakeFiles/kiibohd.elf.dir/Macro/PartialMap/macro.c.o
CLIHistoryHead      0x1               CMakeFiles/kiibohd.elf.dir/main.c.o
LayerState          0x4               CMakeFiles/kiibohd.elf.dir/Macro/PartialMap/macro.c.o
Connect_receive_RemoteCapabilityArgs
                    0x19              CMakeFiles/kiibohd.elf.dir/Scan/UARTConnect/connect_scan.c.o
usb_joystick_data   0xc               CMakeFiles/kiibohd.elf.dir/Output/pjrcUSB/arm/usb_joystick.c.o
USBKeys_Keys        0x1b              CMakeFiles/kiibohd.elf.dir/Output/pjrcUSB/output_com.c.o
Connect_receive_ScanCodeDeviceId
                    0x1               CMakeFiles/kiibohd.elf.dir/Scan/UARTConnect/connect_scan.c.o
uart_rx_status      0x8               CMakeFiles/kiibohd.elf.dir/Scan/UARTConnect/connect_scan.c.o
LED_pageBuffer      0x92              CMakeFiles/kiibohd.elf.dir/Scan/ISSILed/led_scan.c.o
uart_rx_buf         0x104             CMakeFiles/kiibohd.elf.dir/Scan/UARTConnect/connect_scan.c.o
macroTriggerListLayerCache
                    0x59              CMakeFiles/kiibohd.elf.dir/Macro/PartialMap/macro.c.o
I2C_TxBufferPtr     0x12c             CMakeFiles/kiibohd.elf.dir/Scan/ISSILed/led_scan.c.o
Connect_receive_ScanCodeBuffer
                    0x3               CMakeFiles/kiibohd.elf.dir/Scan/UARTConnect/connect_scan.c.o
CLIDict             0x28              CMakeFiles/kiibohd.elf.dir/main.c.o
LCD_layerStackExact
                    0x8               CMakeFiles/kiibohd.elf.dir/Scan/STLcd/lcd_scan.c.o
CLIHistoryTail      0x1               CMakeFiles/kiibohd.elf.dir/main.c.o
USBKeys_KeysCLI     0x1b              CMakeFiles/kiibohd.elf.dir/Output/pjrcUSB/output_com.c.o
macroInterconnectCache
                    0x10b             CMakeFiles/kiibohd.elf.dir/Macro/PartialMap/macro.c.o
CLIDictNames        0x28              CMakeFiles/kiibohd.elf.dir/main.c.o
Connect_receive_ScanCodeBufferPos
                    0x1               CMakeFiles/kiibohd.elf.dir/Scan/UARTConnect/connect_scan.c.o
CLILineBufferCurrent
                    0x1               CMakeFiles/kiibohd.elf.dir/main.c.o
USBKeys_ConsCtrl    0x2               CMakeFiles/kiibohd.elf.dir/Output/pjrcUSB/output_com.c.o
TriggerMacroRecordList
                    0x11a             CMakeFiles/kiibohd.elf.dir/Macro/PartialMap/macro.c.o

Discarded input sections

 .group         0x0000000000000000        0x8 CMakeFiles/kiibohd.elf.dir/main.c.o
 .group         0x0000000000000000        0x8 CMakeFiles/kiibohd.elf.dir/main.c.o
 .group         0x0000000000000000        0x8 CMakeFiles/kiibohd.elf.dir/main.c.o
 .group         0x0000000000000000        0x8 CMakeFiles/kiibohd.elf.dir/main.c.o
 .group         0x0000000000000000        0x8 CMakeFiles/kiibohd.elf.dir/main.c.o
 .group         0x0000000000000000        0x8 CMakeFiles/kiibohd.elf.dir/main.c.o
 .group         0x0000000000000000        0x8 CMakeFiles/kiibohd.elf.dir/main.c.o
 .group         0x0000000000000000        0x8 CMakeFiles/kiibohd.elf.dir/main.c.o
 .group         0x0000000000000000        0x8 CMakeFiles/kiibohd.elf.dir/main.c.o
 .group         0x0000000000000000        0x8 CMakeFiles/kiibohd.elf.dir/main.c.o
 .group         0x0000000000000000        0x8 CMakeFiles/kiibohd.elf.dir/main.c.o
 .text          0x0000000000000000        0x0 CMakeFiles/kiibohd.elf.dir/main.c.o
 .data          0x0000000000000000        0x0 CMakeFiles/kiibohd.elf.dir/main.c.o
 .bss           0x0000000000000000        0x0 CMakeFiles/kiibohd.elf.dir/main.c.o
 .group         0x0000000000000000        0x8 CMakeFiles/kiibohd.elf.dir/Lib/mk20dx.c.o
 .group         0x0000000000000000        0x8 CMakeFiles/kiibohd.elf.dir/Lib/mk20dx.c.o
 .group         0x0000000000000000        0x8 CMakeFiles/kiibohd.elf.dir/Lib/mk20dx.c.o
 .group         0x0000000000000000        0x8 CMakeFiles/kiibohd.elf.dir/Lib/mk20dx.c.o
 .group         0x0000000000000000        0x8 CMakeFiles/kiibohd.elf.dir/Lib/mk20dx.c.o
 .group         0x0000000000000000        0x8 CMakeFiles/kiibohd.elf.dir/Lib/mk20dx.c.o
 .group         0x0000000000000000        0x8 CMakeFiles/kiibohd.elf.dir/Lib/mk20dx.c.o
 .group         0x0000000000000000        0x8 CMakeFiles/kiibohd.elf.dir/Lib/mk20dx.c.o
 .text          0x0000000000000000        0x0 CMakeFiles/kiibohd.elf.dir/Lib/mk20dx.c.o
 .data          0x0000000000000000        0x0 CMakeFiles/kiibohd.elf.dir/Lib/mk20dx.c.o
 .bss           0x0000000000000000        0x0 CMakeFiles/kiibohd.elf.dir/Lib/mk20dx.c.o
 .text.memcmp   0x0000000000000000       0x1c CMakeFiles/kiibohd.elf.dir/Lib/mk20dx.c.o
 .text._sbrk    0x0000000000000000       0x10 CMakeFiles/kiibohd.elf.dir/Lib/mk20dx.c.o
 .text.nvic_execution_priority
                0x0000000000000000       0x40 CMakeFiles/kiibohd.elf.dir/Lib/mk20dx.c.o
 .data.__brkval
                0x0000000000000000        0x4 CMakeFiles/kiibohd.elf.dir/Lib/mk20dx.c.o
 .debug_macro   0x0000000000000000      0x868 CMakeFiles/kiibohd.elf.dir/Lib/mk20dx.c.o
 .debug_macro   0x0000000000000000       0x16 CMakeFiles/kiibohd.elf.dir/Lib/mk20dx.c.o
 .debug_macro   0x0000000000000000       0x44 CMakeFiles/kiibohd.elf.dir/Lib/mk20dx.c.o
 .debug_macro   0x0000000000000000      0x209 CMakeFiles/kiibohd.elf.dir/Lib/mk20dx.c.o
 .debug_macro   0x0000000000000000       0x76 CMakeFiles/kiibohd.elf.dir/Lib/mk20dx.c.o
 .debug_macro   0x0000000000000000       0x10 CMakeFiles/kiibohd.elf.dir/Lib/mk20dx.c.o
 .debug_macro   0x0000000000000000       0x9a CMakeFiles/kiibohd.elf.dir/Lib/mk20dx.c.o
 .group         0x0000000000000000        0x8 CMakeFiles/kiibohd.elf.dir/Lib/delay.c.o
 .group         0x0000000000000000        0x8 CMakeFiles/kiibohd.elf.dir/Lib/delay.c.o
 .group         0x0000000000000000        0x8 CMakeFiles/kiibohd.elf.dir/Lib/delay.c.o
 .group         0x0000000000000000        0x8 CMakeFiles/kiibohd.elf.dir/Lib/delay.c.o
 .group         0x0000000000000000        0x8 CMakeFiles/kiibohd.elf.dir/Lib/delay.c.o
 .group         0x0000000000000000        0x8 CMakeFiles/kiibohd.elf.dir/Lib/delay.c.o
 .text          0x0000000000000000        0x0 CMakeFiles/kiibohd.elf.dir/Lib/delay.c.o
 .data          0x0000000000000000        0x0 CMakeFiles/kiibohd.elf.dir/Lib/delay.c.o
 .bss           0x0000000000000000        0x0 CMakeFiles/kiibohd.elf.dir/Lib/delay.c.o
 .debug_macro   0x0000000000000000      0x868 CMakeFiles/kiibohd.elf.dir/Lib/delay.c.o
 .debug_macro   0x0000000000000000       0x16 CMakeFiles/kiibohd.elf.dir/Lib/delay.c.o
 .debug_macro   0x0000000000000000       0x44 CMakeFiles/kiibohd.elf.dir/Lib/delay.c.o
 .debug_macro   0x0000000000000000      0x209 CMakeFiles/kiibohd.elf.dir/Lib/delay.c.o
 .debug_macro   0x0000000000000000     0x3030 CMakeFiles/kiibohd.elf.dir/Lib/delay.c.o
 .group         0x0000000000000000        0x8 CMakeFiles/kiibohd.elf.dir/Scan/ISSILed/led_scan.c.o
 .group         0x0000000000000000        0x8 CMakeFiles/kiibohd.elf.dir/Scan/ISSILed/led_scan.c.o
 .group         0x0000000000000000        0x8 CMakeFiles/kiibohd.elf.dir/Scan/ISSILed/led_scan.c.o
 .group         0x0000000000000000        0x8 CMakeFiles/kiibohd.elf.dir/Scan/ISSILed/led_scan.c.o
 .group         0x0000000000000000        0x8 CMakeFiles/kiibohd.elf.dir/Scan/ISSILed/led_scan.c.o
 .group         0x0000000000000000        0x8 CMakeFiles/kiibohd.elf.dir/Scan/ISSILed/led_scan.c.o
 .group         0x0000000000000000        0x8 CMakeFiles/kiibohd.elf.dir/Scan/ISSILed/led_scan.c.o
 .group         0x0000000000000000        0x8 CMakeFiles/kiibohd.elf.dir/Scan/ISSILed/led_scan.c.o
 .group         0x0000000000000000        0x8 CMakeFiles/kiibohd.elf.dir/Scan/ISSILed/led_scan.c.o
 .group         0x0000000000000000        0x8 CMakeFiles/kiibohd.elf.dir/Scan/ISSILed/led_scan.c.o
 .group         0x0000000000000000        0x8 CMakeFiles/kiibohd.elf.dir/Scan/ISSILed/led_scan.c.o
 .group         0x0000000000000000        0x8 CMakeFiles/kiibohd.elf.dir/Scan/ISSILed/led_scan.c.o
 .group         0x0000000000000000        0x8 CMakeFiles/kiibohd.elf.dir/Scan/ISSILed/led_scan.c.o
 .group         0x0000000000000000        0x8 CMakeFiles/kiibohd.elf.dir/Scan/ISSILed/led_scan.c.o
 .group         0x0000000000000000        0x8 CMakeFiles/kiibohd.elf.dir/Scan/ISSILed/led_scan.c.o
 .text          0x0000000000000000        0x0 CMakeFiles/kiibohd.elf.dir/Scan/ISSILed/led_scan.c.o
 .data          0x0000000000000000        0x0 CMakeFiles/kiibohd.elf.dir/Scan/ISSILed/led_scan.c.o
 .bss           0x0000000000000000        0x0 CMakeFiles/kiibohd.elf.dir/Scan/ISSILed/led_scan.c.o
 .debug_macro   0x0000000000000000      0x868 CMakeFiles/kiibohd.elf.dir/Scan/ISSILed/led_scan.c.o
 .debug_macro   0x0000000000000000       0x16 CMakeFiles/kiibohd.elf.dir/Scan/ISSILed/led_scan.c.o
 .debug_macro   0x0000000000000000       0x16 CMakeFiles/kiibohd.elf.dir/Scan/ISSILed/led_scan.c.o
 .debug_macro   0x0000000000000000       0x44 CMakeFiles/kiibohd.elf.dir/Scan/ISSILed/led_scan.c.o
 .debug_macro   0x0000000000000000      0x209 CMakeFiles/kiibohd.elf.dir/Scan/ISSILed/led_scan.c.o
 .debug_macro   0x0000000000000000     0x301e CMakeFiles/kiibohd.elf.dir/Scan/ISSILed/led_scan.c.o
 .debug_macro   0x0000000000000000       0x10 CMakeFiles/kiibohd.elf.dir/Scan/ISSILed/led_scan.c.o
 .debug_macro   0x0000000000000000       0x10 CMakeFiles/kiibohd.elf.dir/Scan/ISSILed/led_scan.c.o
 .debug_macro   0x0000000000000000       0x10 CMakeFiles/kiibohd.elf.dir/Scan/ISSILed/led_scan.c.o
 .debug_macro   0x0000000000000000       0x3a CMakeFiles/kiibohd.elf.dir/Scan/ISSILed/led_scan.c.o
 .debug_macro   0x0000000000000000       0x9a CMakeFiles/kiibohd.elf.dir/Scan/ISSILed/led_scan.c.o
 .group         0x0000000000000000        0x8 CMakeFiles/kiibohd.elf.dir/Scan/MatrixARM/matrix_scan.c.o
 .group         0x0000000000000000        0x8 CMakeFiles/kiibohd.elf.dir/Scan/MatrixARM/matrix_scan.c.o
 .group         0x0000000000000000        0x8 CMakeFiles/kiibohd.elf.dir/Scan/MatrixARM/matrix_scan.c.o
 .group         0x0000000000000000        0x8 CMakeFiles/kiibohd.elf.dir/Scan/MatrixARM/matrix_scan.c.o
 .group         0x0000000000000000        0x8 CMakeFiles/kiibohd.elf.dir/Scan/MatrixARM/matrix_scan.c.o
 .group         0x0000000000000000        0x8 CMakeFiles/kiibohd.elf.dir/Scan/MatrixARM/matrix_scan.c.o
 .group         0x0000000000000000        0x8 CMakeFiles/kiibohd.elf.dir/Scan/MatrixARM/matrix_scan.c.o
 .group         0x0000000000000000        0x8 CMakeFiles/kiibohd.elf.dir/Scan/MatrixARM/matrix_scan.c.o
 .group         0x0000000000000000        0x8 CMakeFiles/kiibohd.elf.dir/Scan/MatrixARM/matrix_scan.c.o
 .group         0x0000000000000000        0x8 CMakeFiles/kiibohd.elf.dir/Scan/MatrixARM/matrix_scan.c.o
 .group         0x0000000000000000        0x8 CMakeFiles/kiibohd.elf.dir/Scan/MatrixARM/matrix_scan.c.o
 .group         0x0000000000000000        0x8 CMakeFiles/kiibohd.elf.dir/Scan/MatrixARM/matrix_scan.c.o
 .group         0x0000000000000000        0x8 CMakeFiles/kiibohd.elf.dir/Scan/MatrixARM/matrix_scan.c.o
 .group         0x0000000000000000        0x8 CMakeFiles/kiibohd.elf.dir/Scan/MatrixARM/matrix_scan.c.o
 .text          0x0000000000000000        0x0 CMakeFiles/kiibohd.elf.dir/Scan/MatrixARM/matrix_scan.c.o
 .data          0x0000000000000000        0x0 CMakeFiles/kiibohd.elf.dir/Scan/MatrixARM/matrix_scan.c.o
 .bss           0x0000000000000000        0x0 CMakeFiles/kiibohd.elf.dir/Scan/MatrixARM/matrix_scan.c.o
 .debug_macro   0x0000000000000000      0x868 CMakeFiles/kiibohd.elf.dir/Scan/MatrixARM/matrix_scan.c.o
 .debug_macro   0x0000000000000000       0x16 CMakeFiles/kiibohd.elf.dir/Scan/MatrixARM/matrix_scan.c.o
 .debug_macro   0x0000000000000000       0x16 CMakeFiles/kiibohd.elf.dir/Scan/MatrixARM/matrix_scan.c.o
 .debug_macro   0x0000000000000000       0x44 CMakeFiles/kiibohd.elf.dir/Scan/MatrixARM/matrix_scan.c.o
 .debug_macro   0x0000000000000000      0x209 CMakeFiles/kiibohd.elf.dir/Scan/MatrixARM/matrix_scan.c.o
 .debug_macro   0x0000000000000000     0x301e CMakeFiles/kiibohd.elf.dir/Scan/MatrixARM/matrix_scan.c.o
 .debug_macro   0x0000000000000000       0x10 CMakeFiles/kiibohd.elf.dir/Scan/MatrixARM/matrix_scan.c.o
 .debug_macro   0x0000000000000000       0x10 CMakeFiles/kiibohd.elf.dir/Scan/MatrixARM/matrix_scan.c.o
 .debug_macro   0x0000000000000000       0x76 CMakeFiles/kiibohd.elf.dir/Scan/MatrixARM/matrix_scan.c.o
 .debug_macro   0x0000000000000000       0x10 CMakeFiles/kiibohd.elf.dir/Scan/MatrixARM/matrix_scan.c.o
 .debug_macro   0x0000000000000000       0x3a CMakeFiles/kiibohd.elf.dir/Scan/MatrixARM/matrix_scan.c.o
 .debug_macro   0x0000000000000000      0x11b CMakeFiles/kiibohd.elf.dir/Scan/MatrixARM/matrix_scan.c.o
 .debug_macro   0x0000000000000000       0x9a CMakeFiles/kiibohd.elf.dir/Scan/MatrixARM/matrix_scan.c.o
 .group         0x0000000000000000        0x8 CMakeFiles/kiibohd.elf.dir/Scan/STLcd/lcd_scan.c.o
 .group         0x0000000000000000        0x8 CMakeFiles/kiibohd.elf.dir/Scan/STLcd/lcd_scan.c.o
 .group         0x0000000000000000        0x8 CMakeFiles/kiibohd.elf.dir/Scan/STLcd/lcd_scan.c.o
 .group         0x0000000000000000        0x8 CMakeFiles/kiibohd.elf.dir/Scan/STLcd/lcd_scan.c.o
 .group         0x0000000000000000        0x8 CMakeFiles/kiibohd.elf.dir/Scan/STLcd/lcd_scan.c.o
 .group         0x0000000000000000        0x8 CMakeFiles/kiibohd.elf.dir/Scan/STLcd/lcd_scan.c.o
 .group         0x0000000000000000        0x8 CMakeFiles/kiibohd.elf.dir/Scan/STLcd/lcd_scan.c.o
 .group         0x0000000000000000        0x8 CMakeFiles/kiibohd.elf.dir/Scan/STLcd/lcd_scan.c.o
 .group         0x0000000000000000        0x8 CMakeFiles/kiibohd.elf.dir/Scan/STLcd/lcd_scan.c.o
 .group         0x0000000000000000        0x8 CMakeFiles/kiibohd.elf.dir/Scan/STLcd/lcd_scan.c.o
 .group         0x0000000000000000        0x8 CMakeFiles/kiibohd.elf.dir/Scan/STLcd/lcd_scan.c.o
 .group         0x0000000000000000        0x8 CMakeFiles/kiibohd.elf.dir/Scan/STLcd/lcd_scan.c.o
 .group         0x0000000000000000        0x8 CMakeFiles/kiibohd.elf.dir/Scan/STLcd/lcd_scan.c.o
 .group         0x0000000000000000        0x8 CMakeFiles/kiibohd.elf.dir/Scan/STLcd/lcd_scan.c.o
 .group         0x0000000000000000        0x8 CMakeFiles/kiibohd.elf.dir/Scan/STLcd/lcd_scan.c.o
 .text          0x0000000000000000        0x0 CMakeFiles/kiibohd.elf.dir/Scan/STLcd/lcd_scan.c.o
 .data          0x0000000000000000        0x0 CMakeFiles/kiibohd.elf.dir/Scan/STLcd/lcd_scan.c.o
 .bss           0x0000000000000000        0x0 CMakeFiles/kiibohd.elf.dir/Scan/STLcd/lcd_scan.c.o
 .bss.LCD_layerStackExact_size
                0x0000000000000000        0x1 CMakeFiles/kiibohd.elf.dir/Scan/STLcd/lcd_scan.c.o
 .bss.cliNormalReverseToggleState
                0x0000000000000000        0x1 CMakeFiles/kiibohd.elf.dir/Scan/STLcd/lcd_scan.c.o
 .bss.cliFullToggleState
                0x0000000000000000        0x1 CMakeFiles/kiibohd.elf.dir/Scan/STLcd/lcd_scan.c.o
 .debug_macro   0x0000000000000000      0x868 CMakeFiles/kiibohd.elf.dir/Scan/STLcd/lcd_scan.c.o
 .debug_macro   0x0000000000000000       0x16 CMakeFiles/kiibohd.elf.dir/Scan/STLcd/lcd_scan.c.o
 .debug_macro   0x0000000000000000       0x16 CMakeFiles/kiibohd.elf.dir/Scan/STLcd/lcd_scan.c.o
 .debug_macro   0x0000000000000000       0x44 CMakeFiles/kiibohd.elf.dir/Scan/STLcd/lcd_scan.c.o
 .debug_macro   0x0000000000000000      0x209 CMakeFiles/kiibohd.elf.dir/Scan/STLcd/lcd_scan.c.o
 .debug_macro   0x0000000000000000     0x301e CMakeFiles/kiibohd.elf.dir/Scan/STLcd/lcd_scan.c.o
 .debug_macro   0x0000000000000000       0x10 CMakeFiles/kiibohd.elf.dir/Scan/STLcd/lcd_scan.c.o
 .debug_macro   0x0000000000000000       0x10 CMakeFiles/kiibohd.elf.dir/Scan/STLcd/lcd_scan.c.o
 .debug_macro   0x0000000000000000       0x76 CMakeFiles/kiibohd.elf.dir/Scan/STLcd/lcd_scan.c.o
 .debug_macro   0x0000000000000000       0x10 CMakeFiles/kiibohd.elf.dir/Scan/STLcd/lcd_scan.c.o
 .debug_macro   0x0000000000000000       0x3a CMakeFiles/kiibohd.elf.dir/Scan/STLcd/lcd_scan.c.o
 .debug_macro   0x0000000000000000      0x11b CMakeFiles/kiibohd.elf.dir/Scan/STLcd/lcd_scan.c.o
 .debug_macro   0x0000000000000000       0x9a CMakeFiles/kiibohd.elf.dir/Scan/STLcd/lcd_scan.c.o
 .debug_macro   0x0000000000000000     0x1217 CMakeFiles/kiibohd.elf.dir/Scan/STLcd/lcd_scan.c.o
 .debug_macro   0x0000000000000000       0x57 CMakeFiles/kiibohd.elf.dir/Scan/STLcd/lcd_scan.c.o
 COMMON         0x0000000000000000        0x8 CMakeFiles/kiibohd.elf.dir/Scan/STLcd/lcd_scan.c.o
 .group         0x0000000000000000        0x8 CMakeFiles/kiibohd.elf.dir/Scan/UARTConnect/connect_scan.c.o
 .group         0x0000000000000000        0x8 CMakeFiles/kiibohd.elf.dir/Scan/UARTConnect/connect_scan.c.o
 .group         0x0000000000000000        0x8 CMakeFiles/kiibohd.elf.dir/Scan/UARTConnect/connect_scan.c.o
 .group         0x0000000000000000        0x8 CMakeFiles/kiibohd.elf.dir/Scan/UARTConnect/connect_scan.c.o
 .group         0x0000000000000000        0x8 CMakeFiles/kiibohd.elf.dir/Scan/UARTConnect/connect_scan.c.o
 .group         0x0000000000000000        0x8 CMakeFiles/kiibohd.elf.dir/Scan/UARTConnect/connect_scan.c.o
 .group         0x0000000000000000        0x8 CMakeFiles/kiibohd.elf.dir/Scan/UARTConnect/connect_scan.c.o
 .group         0x0000000000000000        0x8 CMakeFiles/kiibohd.elf.dir/Scan/UARTConnect/connect_scan.c.o
 .group         0x0000000000000000        0x8 CMakeFiles/kiibohd.elf.dir/Scan/UARTConnect/connect_scan.c.o
 .group         0x0000000000000000        0x8 CMakeFiles/kiibohd.elf.dir/Scan/UARTConnect/connect_scan.c.o
 .group         0x0000000000000000        0x8 CMakeFiles/kiibohd.elf.dir/Scan/UARTConnect/connect_scan.c.o
 .group         0x0000000000000000        0x8 CMakeFiles/kiibohd.elf.dir/Scan/UARTConnect/connect_scan.c.o
 .group         0x0000000000000000        0x8 CMakeFiles/kiibohd.elf.dir/Scan/UARTConnect/connect_scan.c.o
 .group         0x0000000000000000        0x8 CMakeFiles/kiibohd.elf.dir/Scan/UARTConnect/connect_scan.c.o
 .group         0x0000000000000000        0x8 CMakeFiles/kiibohd.elf.dir/Scan/UARTConnect/connect_scan.c.o
 .text          0x0000000000000000        0x0 CMakeFiles/kiibohd.elf.dir/Scan/UARTConnect/connect_scan.c.o
 .data          0x0000000000000000        0x0 CMakeFiles/kiibohd.elf.dir/Scan/UARTConnect/connect_scan.c.o
 .bss           0x0000000000000000        0x0 CMakeFiles/kiibohd.elf.dir/Scan/UARTConnect/connect_scan.c.o
 .text.Connect_send_Animation
                0x0000000000000000       0x58 CMakeFiles/kiibohd.elf.dir/Scan/UARTConnect/connect_scan.c.o
 .debug_macro   0x0000000000000000      0x868 CMakeFiles/kiibohd.elf.dir/Scan/UARTConnect/connect_scan.c.o
 .debug_macro   0x0000000000000000       0x16 CMakeFiles/kiibohd.elf.dir/Scan/UARTConnect/connect_scan.c.o
 .debug_macro   0x0000000000000000       0x16 CMakeFiles/kiibohd.elf.dir/Scan/UARTConnect/connect_scan.c.o
 .debug_macro   0x0000000000000000       0x44 CMakeFiles/kiibohd.elf.dir/Scan/UARTConnect/connect_scan.c.o
 .debug_macro   0x0000000000000000      0x209 CMakeFiles/kiibohd.elf.dir/Scan/UARTConnect/connect_scan.c.o
 .debug_macro   0x0000000000000000     0x301e CMakeFiles/kiibohd.elf.dir/Scan/UARTConnect/connect_scan.c.o
 .debug_macro   0x0000000000000000       0x10 CMakeFiles/kiibohd.elf.dir/Scan/UARTConnect/connect_scan.c.o
 .debug_macro   0x0000000000000000       0x10 CMakeFiles/kiibohd.elf.dir/Scan/UARTConnect/connect_scan.c.o
 .debug_macro   0x0000000000000000       0x76 CMakeFiles/kiibohd.elf.dir/Scan/UARTConnect/connect_scan.c.o
 .debug_macro   0x0000000000000000       0x10 CMakeFiles/kiibohd.elf.dir/Scan/UARTConnect/connect_scan.c.o
 .debug_macro   0x0000000000000000       0x3a CMakeFiles/kiibohd.elf.dir/Scan/UARTConnect/connect_scan.c.o
 .debug_macro   0x0000000000000000      0x11b CMakeFiles/kiibohd.elf.dir/Scan/UARTConnect/connect_scan.c.o
 .debug_macro   0x0000000000000000       0x9a CMakeFiles/kiibohd.elf.dir/Scan/UARTConnect/connect_scan.c.o
 .debug_macro   0x0000000000000000     0x1217 CMakeFiles/kiibohd.elf.dir/Scan/UARTConnect/connect_scan.c.o
 .debug_macro   0x0000000000000000       0x57 CMakeFiles/kiibohd.elf.dir/Scan/UARTConnect/connect_scan.c.o
 .group         0x0000000000000000        0x8 CMakeFiles/kiibohd.elf.dir/Scan/MDErgo1/scan_loop.c.o
 .group         0x0000000000000000        0x8 CMakeFiles/kiibohd.elf.dir/Scan/MDErgo1/scan_loop.c.o
 .group         0x0000000000000000        0x8 CMakeFiles/kiibohd.elf.dir/Scan/MDErgo1/scan_loop.c.o
 .group         0x0000000000000000        0x8 CMakeFiles/kiibohd.elf.dir/Scan/MDErgo1/scan_loop.c.o
 .group         0x0000000000000000        0x8 CMakeFiles/kiibohd.elf.dir/Scan/MDErgo1/scan_loop.c.o
 .group         0x0000000000000000        0x8 CMakeFiles/kiibohd.elf.dir/Scan/MDErgo1/scan_loop.c.o
 .group         0x0000000000000000        0x8 CMakeFiles/kiibohd.elf.dir/Scan/MDErgo1/scan_loop.c.o
 .group         0x0000000000000000        0x8 CMakeFiles/kiibohd.elf.dir/Scan/MDErgo1/scan_loop.c.o
 .group         0x0000000000000000        0x8 CMakeFiles/kiibohd.elf.dir/Scan/MDErgo1/scan_loop.c.o
 .group         0x0000000000000000        0x8 CMakeFiles/kiibohd.elf.dir/Scan/MDErgo1/scan_loop.c.o
 .group         0x0000000000000000        0x8 CMakeFiles/kiibohd.elf.dir/Scan/MDErgo1/scan_loop.c.o
 .group         0x0000000000000000        0x8 CMakeFiles/kiibohd.elf.dir/Scan/MDErgo1/scan_loop.c.o
 .group         0x0000000000000000        0x8 CMakeFiles/kiibohd.elf.dir/Scan/MDErgo1/scan_loop.c.o
 .group         0x0000000000000000        0x8 CMakeFiles/kiibohd.elf.dir/Scan/MDErgo1/scan_loop.c.o
 .group         0x0000000000000000        0x8 CMakeFiles/kiibohd.elf.dir/Scan/MDErgo1/scan_loop.c.o
 .text          0x0000000000000000        0x0 CMakeFiles/kiibohd.elf.dir/Scan/MDErgo1/scan_loop.c.o
 .data          0x0000000000000000        0x0 CMakeFiles/kiibohd.elf.dir/Scan/MDErgo1/scan_loop.c.o
 .bss           0x0000000000000000        0x0 CMakeFiles/kiibohd.elf.dir/Scan/MDErgo1/scan_loop.c.o
 .debug_macro   0x0000000000000000      0x868 CMakeFiles/kiibohd.elf.dir/Scan/MDErgo1/scan_loop.c.o
 .debug_macro   0x0000000000000000       0x16 CMakeFiles/kiibohd.elf.dir/Scan/MDErgo1/scan_loop.c.o
 .debug_macro   0x0000000000000000       0x16 CMakeFiles/kiibohd.elf.dir/Scan/MDErgo1/scan_loop.c.o
 .debug_macro   0x0000000000000000       0x44 CMakeFiles/kiibohd.elf.dir/Scan/MDErgo1/scan_loop.c.o
 .debug_macro   0x0000000000000000      0x209 CMakeFiles/kiibohd.elf.dir/Scan/MDErgo1/scan_loop.c.o
 .debug_macro   0x0000000000000000     0x301e CMakeFiles/kiibohd.elf.dir/Scan/MDErgo1/scan_loop.c.o
 .debug_macro   0x0000000000000000       0x10 CMakeFiles/kiibohd.elf.dir/Scan/MDErgo1/scan_loop.c.o
 .debug_macro   0x0000000000000000       0x10 CMakeFiles/kiibohd.elf.dir/Scan/MDErgo1/scan_loop.c.o
 .debug_macro   0x0000000000000000       0x76 CMakeFiles/kiibohd.elf.dir/Scan/MDErgo1/scan_loop.c.o
 .debug_macro   0x0000000000000000       0x10 CMakeFiles/kiibohd.elf.dir/Scan/MDErgo1/scan_loop.c.o
 .debug_macro   0x0000000000000000       0x3a CMakeFiles/kiibohd.elf.dir/Scan/MDErgo1/scan_loop.c.o
 .debug_macro   0x0000000000000000       0x9a CMakeFiles/kiibohd.elf.dir/Scan/MDErgo1/scan_loop.c.o
 .debug_macro   0x0000000000000000     0x1217 CMakeFiles/kiibohd.elf.dir/Scan/MDErgo1/scan_loop.c.o
 .debug_macro   0x0000000000000000       0x57 CMakeFiles/kiibohd.elf.dir/Scan/MDErgo1/scan_loop.c.o
 .group         0x0000000000000000        0x8 CMakeFiles/kiibohd.elf.dir/Macro/PartialMap/macro.c.o
 .group         0x0000000000000000        0x8 CMakeFiles/kiibohd.elf.dir/Macro/PartialMap/macro.c.o
 .group         0x0000000000000000        0x8 CMakeFiles/kiibohd.elf.dir/Macro/PartialMap/macro.c.o
 .group         0x0000000000000000        0x8 CMakeFiles/kiibohd.elf.dir/Macro/PartialMap/macro.c.o
 .group         0x0000000000000000        0x8 CMakeFiles/kiibohd.elf.dir/Macro/PartialMap/macro.c.o
 .group         0x0000000000000000        0x8 CMakeFiles/kiibohd.elf.dir/Macro/PartialMap/macro.c.o
 .group         0x0000000000000000        0x8 CMakeFiles/kiibohd.elf.dir/Macro/PartialMap/macro.c.o
 .group         0x0000000000000000        0x8 CMakeFiles/kiibohd.elf.dir/Macro/PartialMap/macro.c.o
 .group         0x0000000000000000        0x8 CMakeFiles/kiibohd.elf.dir/Macro/PartialMap/macro.c.o
 .group         0x0000000000000000        0x8 CMakeFiles/kiibohd.elf.dir/Macro/PartialMap/macro.c.o
 .group         0x0000000000000000        0x8 CMakeFiles/kiibohd.elf.dir/Macro/PartialMap/macro.c.o
 .group         0x0000000000000000        0x8 CMakeFiles/kiibohd.elf.dir/Macro/PartialMap/macro.c.o
 .group         0x0000000000000000        0x8 CMakeFiles/kiibohd.elf.dir/Macro/PartialMap/macro.c.o
 .group         0x0000000000000000        0x8 CMakeFiles/kiibohd.elf.dir/Macro/PartialMap/macro.c.o
 .group         0x0000000000000000        0x8 CMakeFiles/kiibohd.elf.dir/Macro/PartialMap/macro.c.o
 .text          0x0000000000000000        0x0 CMakeFiles/kiibohd.elf.dir/Macro/PartialMap/macro.c.o
 .data          0x0000000000000000        0x0 CMakeFiles/kiibohd.elf.dir/Macro/PartialMap/macro.c.o
 .bss           0x0000000000000000        0x0 CMakeFiles/kiibohd.elf.dir/Macro/PartialMap/macro.c.o
 .text.Macro_analogState
                0x0000000000000000       0x4c CMakeFiles/kiibohd.elf.dir/Macro/PartialMap/macro.c.o
 .text.Macro_ledState
                0x0000000000000000       0x28 CMakeFiles/kiibohd.elf.dir/Macro/PartialMap/macro.c.o
 .debug_macro   0x0000000000000000      0x868 CMakeFiles/kiibohd.elf.dir/Macro/PartialMap/macro.c.o
 .debug_macro   0x0000000000000000       0x16 CMakeFiles/kiibohd.elf.dir/Macro/PartialMap/macro.c.o
 .debug_macro   0x0000000000000000       0x16 CMakeFiles/kiibohd.elf.dir/Macro/PartialMap/macro.c.o
 .debug_macro   0x0000000000000000       0x44 CMakeFiles/kiibohd.elf.dir/Macro/PartialMap/macro.c.o
 .debug_macro   0x0000000000000000      0x209 CMakeFiles/kiibohd.elf.dir/Macro/PartialMap/macro.c.o
 .debug_macro   0x0000000000000000     0x301e CMakeFiles/kiibohd.elf.dir/Macro/PartialMap/macro.c.o
 .debug_macro   0x0000000000000000       0x10 CMakeFiles/kiibohd.elf.dir/Macro/PartialMap/macro.c.o
 .debug_macro   0x0000000000000000       0x10 CMakeFiles/kiibohd.elf.dir/Macro/PartialMap/macro.c.o
 .debug_macro   0x0000000000000000       0x76 CMakeFiles/kiibohd.elf.dir/Macro/PartialMap/macro.c.o
 .debug_macro   0x0000000000000000       0x10 CMakeFiles/kiibohd.elf.dir/Macro/PartialMap/macro.c.o
 .debug_macro   0x0000000000000000       0x3a CMakeFiles/kiibohd.elf.dir/Macro/PartialMap/macro.c.o
 .debug_macro   0x0000000000000000       0x9a CMakeFiles/kiibohd.elf.dir/Macro/PartialMap/macro.c.o
 .debug_macro   0x0000000000000000     0x1217 CMakeFiles/kiibohd.elf.dir/Macro/PartialMap/macro.c.o
 .debug_macro   0x0000000000000000      0x11b CMakeFiles/kiibohd.elf.dir/Macro/PartialMap/macro.c.o
 .debug_macro   0x0000000000000000       0x57 CMakeFiles/kiibohd.elf.dir/Macro/PartialMap/macro.c.o
 .group         0x0000000000000000        0x8 CMakeFiles/kiibohd.elf.dir/Output/pjrcUSB/output_com.c.o
 .group         0x0000000000000000        0x8 CMakeFiles/kiibohd.elf.dir/Output/pjrcUSB/output_com.c.o
 .group         0x0000000000000000        0x8 CMakeFiles/kiibohd.elf.dir/Output/pjrcUSB/output_com.c.o
 .group         0x0000000000000000        0x8 CMakeFiles/kiibohd.elf.dir/Output/pjrcUSB/output_com.c.o
 .group         0x0000000000000000        0x8 CMakeFiles/kiibohd.elf.dir/Output/pjrcUSB/output_com.c.o
 .group         0x0000000000000000        0x8 CMakeFiles/kiibohd.elf.dir/Output/pjrcUSB/output_com.c.o
 .group         0x0000000000000000        0x8 CMakeFiles/kiibohd.elf.dir/Output/pjrcUSB/output_com.c.o
 .group         0x0000000000000000        0x8 CMakeFiles/kiibohd.elf.dir/Output/pjrcUSB/output_com.c.o
 .group         0x0000000000000000        0x8 CMakeFiles/kiibohd.elf.dir/Output/pjrcUSB/output_com.c.o
 .group         0x0000000000000000        0x8 CMakeFiles/kiibohd.elf.dir/Output/pjrcUSB/output_com.c.o
 .group         0x0000000000000000        0x8 CMakeFiles/kiibohd.elf.dir/Output/pjrcUSB/output_com.c.o
 .group         0x0000000000000000        0x8 CMakeFiles/kiibohd.elf.dir/Output/pjrcUSB/output_com.c.o
 .group         0x0000000000000000        0x8 CMakeFiles/kiibohd.elf.dir/Output/pjrcUSB/output_com.c.o
 .group         0x0000000000000000        0x8 CMakeFiles/kiibohd.elf.dir/Output/pjrcUSB/output_com.c.o
 .group         0x0000000000000000        0x8 CMakeFiles/kiibohd.elf.dir/Output/pjrcUSB/output_com.c.o
 .group         0x0000000000000000        0x8 CMakeFiles/kiibohd.elf.dir/Output/pjrcUSB/output_com.c.o
 .group         0x0000000000000000        0x8 CMakeFiles/kiibohd.elf.dir/Output/pjrcUSB/output_com.c.o
 .group         0x0000000000000000        0x8 CMakeFiles/kiibohd.elf.dir/Output/pjrcUSB/output_com.c.o
 .text          0x0000000000000000        0x0 CMakeFiles/kiibohd.elf.dir/Output/pjrcUSB/output_com.c.o
 .data          0x0000000000000000        0x0 CMakeFiles/kiibohd.elf.dir/Output/pjrcUSB/output_com.c.o
 .bss           0x0000000000000000        0x0 CMakeFiles/kiibohd.elf.dir/Output/pjrcUSB/output_com.c.o
 .text.Output_firmwareReload
                0x0000000000000000        0x4 CMakeFiles/kiibohd.elf.dir/Output/pjrcUSB/output_com.c.o
 .text.Output_putchar
                0x0000000000000000        0x4 CMakeFiles/kiibohd.elf.dir/Output/pjrcUSB/output_com.c.o
 .debug_macro   0x0000000000000000      0x868 CMakeFiles/kiibohd.elf.dir/Output/pjrcUSB/output_com.c.o
 .debug_macro   0x0000000000000000       0x16 CMakeFiles/kiibohd.elf.dir/Output/pjrcUSB/output_com.c.o
 .debug_macro   0x0000000000000000       0x16 CMakeFiles/kiibohd.elf.dir/Output/pjrcUSB/output_com.c.o
 .debug_macro   0x0000000000000000       0x44 CMakeFiles/kiibohd.elf.dir/Output/pjrcUSB/output_com.c.o
 .debug_macro   0x0000000000000000      0x209 CMakeFiles/kiibohd.elf.dir/Output/pjrcUSB/output_com.c.o
 .debug_macro   0x0000000000000000     0x301e CMakeFiles/kiibohd.elf.dir/Output/pjrcUSB/output_com.c.o
 .debug_macro   0x0000000000000000       0x10 CMakeFiles/kiibohd.elf.dir/Output/pjrcUSB/output_com.c.o
 .debug_macro   0x0000000000000000       0x10 CMakeFiles/kiibohd.elf.dir/Output/pjrcUSB/output_com.c.o
 .debug_macro   0x0000000000000000       0x76 CMakeFiles/kiibohd.elf.dir/Output/pjrcUSB/output_com.c.o
 .debug_macro   0x0000000000000000       0x10 CMakeFiles/kiibohd.elf.dir/Output/pjrcUSB/output_com.c.o
 .debug_macro   0x0000000000000000       0x3a CMakeFiles/kiibohd.elf.dir/Output/pjrcUSB/output_com.c.o
 .debug_macro   0x0000000000000000       0x9a CMakeFiles/kiibohd.elf.dir/Output/pjrcUSB/output_com.c.o
 .group         0x0000000000000000        0x8 CMakeFiles/kiibohd.elf.dir/Output/pjrcUSB/arm/usb_desc.c.o
 .group         0x0000000000000000        0x8 CMakeFiles/kiibohd.elf.dir/Output/pjrcUSB/arm/usb_desc.c.o
 .group         0x0000000000000000        0x8 CMakeFiles/kiibohd.elf.dir/Output/pjrcUSB/arm/usb_desc.c.o
 .group         0x0000000000000000        0x8 CMakeFiles/kiibohd.elf.dir/Output/pjrcUSB/arm/usb_desc.c.o
 .group         0x0000000000000000        0x8 CMakeFiles/kiibohd.elf.dir/Output/pjrcUSB/arm/usb_desc.c.o
 .group         0x0000000000000000        0x8 CMakeFiles/kiibohd.elf.dir/Output/pjrcUSB/arm/usb_desc.c.o
 .group         0x0000000000000000        0x8 CMakeFiles/kiibohd.elf.dir/Output/pjrcUSB/arm/usb_desc.c.o
 .group         0x0000000000000000        0x8 CMakeFiles/kiibohd.elf.dir/Output/pjrcUSB/arm/usb_desc.c.o
 .group         0x0000000000000000        0x8 CMakeFiles/kiibohd.elf.dir/Output/pjrcUSB/arm/usb_desc.c.o
 .text          0x0000000000000000        0x0 CMakeFiles/kiibohd.elf.dir/Output/pjrcUSB/arm/usb_desc.c.o
 .data          0x0000000000000000        0x0 CMakeFiles/kiibohd.elf.dir/Output/pjrcUSB/arm/usb_desc.c.o
 .bss           0x0000000000000000        0x0 CMakeFiles/kiibohd.elf.dir/Output/pjrcUSB/arm/usb_desc.c.o
 .debug_macro   0x0000000000000000      0x868 CMakeFiles/kiibohd.elf.dir/Output/pjrcUSB/arm/usb_desc.c.o
 .debug_macro   0x0000000000000000       0x16 CMakeFiles/kiibohd.elf.dir/Output/pjrcUSB/arm/usb_desc.c.o
 .debug_macro   0x0000000000000000       0x44 CMakeFiles/kiibohd.elf.dir/Output/pjrcUSB/arm/usb_desc.c.o
 .debug_macro   0x0000000000000000      0x209 CMakeFiles/kiibohd.elf.dir/Output/pjrcUSB/arm/usb_desc.c.o
 .debug_macro   0x0000000000000000      0x16d CMakeFiles/kiibohd.elf.dir/Output/pjrcUSB/arm/usb_desc.c.o
 .debug_macro   0x0000000000000000       0x76 CMakeFiles/kiibohd.elf.dir/Output/pjrcUSB/arm/usb_desc.c.o
 .debug_macro   0x0000000000000000       0x10 CMakeFiles/kiibohd.elf.dir/Output/pjrcUSB/arm/usb_desc.c.o
 .debug_macro   0x0000000000000000      0x178 CMakeFiles/kiibohd.elf.dir/Output/pjrcUSB/arm/usb_desc.c.o
 .debug_macro   0x0000000000000000      0x11b CMakeFiles/kiibohd.elf.dir/Output/pjrcUSB/arm/usb_desc.c.o
 .group         0x0000000000000000        0x8 CMakeFiles/kiibohd.elf.dir/Output/pjrcUSB/arm/usb_dev.c.o
 .group         0x0000000000000000        0x8 CMakeFiles/kiibohd.elf.dir/Output/pjrcUSB/arm/usb_dev.c.o
 .group         0x0000000000000000        0x8 CMakeFiles/kiibohd.elf.dir/Output/pjrcUSB/arm/usb_dev.c.o
 .group         0x0000000000000000        0x8 CMakeFiles/kiibohd.elf.dir/Output/pjrcUSB/arm/usb_dev.c.o
 .group         0x0000000000000000        0x8 CMakeFiles/kiibohd.elf.dir/Output/pjrcUSB/arm/usb_dev.c.o
 .group         0x0000000000000000        0x8 CMakeFiles/kiibohd.elf.dir/Output/pjrcUSB/arm/usb_dev.c.o
 .group         0x0000000000000000        0x8 CMakeFiles/kiibohd.elf.dir/Output/pjrcUSB/arm/usb_dev.c.o
 .group         0x0000000000000000        0x8 CMakeFiles/kiibohd.elf.dir/Output/pjrcUSB/arm/usb_dev.c.o
 .group         0x0000000000000000        0x8 CMakeFiles/kiibohd.elf.dir/Output/pjrcUSB/arm/usb_dev.c.o
 .group         0x0000000000000000        0x8 CMakeFiles/kiibohd.elf.dir/Output/pjrcUSB/arm/usb_dev.c.o
 .group         0x0000000000000000        0x8 CMakeFiles/kiibohd.elf.dir/Output/pjrcUSB/arm/usb_dev.c.o
 .group         0x0000000000000000        0x8 CMakeFiles/kiibohd.elf.dir/Output/pjrcUSB/arm/usb_dev.c.o
 .group         0x0000000000000000        0x8 CMakeFiles/kiibohd.elf.dir/Output/pjrcUSB/arm/usb_dev.c.o
 .text          0x0000000000000000        0x0 CMakeFiles/kiibohd.elf.dir/Output/pjrcUSB/arm/usb_dev.c.o
 .data          0x0000000000000000        0x0 CMakeFiles/kiibohd.elf.dir/Output/pjrcUSB/arm/usb_dev.c.o
 .bss           0x0000000000000000        0x0 CMakeFiles/kiibohd.elf.dir/Output/pjrcUSB/arm/usb_dev.c.o
 .text.usb_tx_byte_count
                0x0000000000000000       0x28 CMakeFiles/kiibohd.elf.dir/Output/pjrcUSB/arm/usb_dev.c.o
 .text.usb_configured
                0x0000000000000000        0xc CMakeFiles/kiibohd.elf.dir/Output/pjrcUSB/arm/usb_dev.c.o
 .debug_macro   0x0000000000000000      0x868 CMakeFiles/kiibohd.elf.dir/Output/pjrcUSB/arm/usb_dev.c.o
 .debug_macro   0x0000000000000000       0x16 CMakeFiles/kiibohd.elf.dir/Output/pjrcUSB/arm/usb_dev.c.o
 .debug_macro   0x0000000000000000       0x16 CMakeFiles/kiibohd.elf.dir/Output/pjrcUSB/arm/usb_dev.c.o
 .debug_macro   0x0000000000000000       0x44 CMakeFiles/kiibohd.elf.dir/Output/pjrcUSB/arm/usb_dev.c.o
 .debug_macro   0x0000000000000000      0x209 CMakeFiles/kiibohd.elf.dir/Output/pjrcUSB/arm/usb_dev.c.o
 .debug_macro   0x0000000000000000     0x301e CMakeFiles/kiibohd.elf.dir/Output/pjrcUSB/arm/usb_dev.c.o
 .debug_macro   0x0000000000000000       0x10 CMakeFiles/kiibohd.elf.dir/Output/pjrcUSB/arm/usb_dev.c.o
 .debug_macro   0x0000000000000000       0x76 CMakeFiles/kiibohd.elf.dir/Output/pjrcUSB/arm/usb_dev.c.o
 .debug_macro   0x0000000000000000       0x10 CMakeFiles/kiibohd.elf.dir/Output/pjrcUSB/arm/usb_dev.c.o
 .debug_macro   0x0000000000000000       0x9a CMakeFiles/kiibohd.elf.dir/Output/pjrcUSB/arm/usb_dev.c.o
 .debug_macro   0x0000000000000000      0x11b CMakeFiles/kiibohd.elf.dir/Output/pjrcUSB/arm/usb_dev.c.o
 .debug_macro   0x0000000000000000      0x16d CMakeFiles/kiibohd.elf.dir/Output/pjrcUSB/arm/usb_dev.c.o
 .debug_macro   0x0000000000000000      0x178 CMakeFiles/kiibohd.elf.dir/Output/pjrcUSB/arm/usb_dev.c.o
 .group         0x0000000000000000        0x8 CMakeFiles/kiibohd.elf.dir/Output/pjrcUSB/arm/usb_joystick.c.o
 .group         0x0000000000000000        0x8 CMakeFiles/kiibohd.elf.dir/Output/pjrcUSB/arm/usb_joystick.c.o
 .group         0x0000000000000000        0x8 CMakeFiles/kiibohd.elf.dir/Output/pjrcUSB/arm/usb_joystick.c.o
 .group         0x0000000000000000        0x8 CMakeFiles/kiibohd.elf.dir/Output/pjrcUSB/arm/usb_joystick.c.o
 .group         0x0000000000000000        0x8 CMakeFiles/kiibohd.elf.dir/Output/pjrcUSB/arm/usb_joystick.c.o
 .group         0x0000000000000000        0x8 CMakeFiles/kiibohd.elf.dir/Output/pjrcUSB/arm/usb_joystick.c.o
 .group         0x0000000000000000        0x8 CMakeFiles/kiibohd.elf.dir/Output/pjrcUSB/arm/usb_joystick.c.o
 .group         0x0000000000000000        0x8 CMakeFiles/kiibohd.elf.dir/Output/pjrcUSB/arm/usb_joystick.c.o
 .group         0x0000000000000000        0x8 CMakeFiles/kiibohd.elf.dir/Output/pjrcUSB/arm/usb_joystick.c.o
 .group         0x0000000000000000        0x8 CMakeFiles/kiibohd.elf.dir/Output/pjrcUSB/arm/usb_joystick.c.o
 .group         0x0000000000000000        0x8 CMakeFiles/kiibohd.elf.dir/Output/pjrcUSB/arm/usb_joystick.c.o
 .group         0x0000000000000000        0x8 CMakeFiles/kiibohd.elf.dir/Output/pjrcUSB/arm/usb_joystick.c.o
 .group         0x0000000000000000        0x8 CMakeFiles/kiibohd.elf.dir/Output/pjrcUSB/arm/usb_joystick.c.o
 .group         0x0000000000000000        0x8 CMakeFiles/kiibohd.elf.dir/Output/pjrcUSB/arm/usb_joystick.c.o
 .group         0x0000000000000000        0x8 CMakeFiles/kiibohd.elf.dir/Output/pjrcUSB/arm/usb_joystick.c.o
 .group         0x0000000000000000        0x8 CMakeFiles/kiibohd.elf.dir/Output/pjrcUSB/arm/usb_joystick.c.o
 .group         0x0000000000000000        0x8 CMakeFiles/kiibohd.elf.dir/Output/pjrcUSB/arm/usb_joystick.c.o
 .group         0x0000000000000000        0x8 CMakeFiles/kiibohd.elf.dir/Output/pjrcUSB/arm/usb_joystick.c.o
 .group         0x0000000000000000        0x8 CMakeFiles/kiibohd.elf.dir/Output/pjrcUSB/arm/usb_joystick.c.o
 .group         0x0000000000000000        0x8 CMakeFiles/kiibohd.elf.dir/Output/pjrcUSB/arm/usb_joystick.c.o
 .group         0x0000000000000000        0x8 CMakeFiles/kiibohd.elf.dir/Output/pjrcUSB/arm/usb_joystick.c.o
 .group         0x0000000000000000        0x8 CMakeFiles/kiibohd.elf.dir/Output/pjrcUSB/arm/usb_joystick.c.o
 .group         0x0000000000000000        0x8 CMakeFiles/kiibohd.elf.dir/Output/pjrcUSB/arm/usb_joystick.c.o
 .group         0x0000000000000000        0x8 CMakeFiles/kiibohd.elf.dir/Output/pjrcUSB/arm/usb_joystick.c.o
 .group         0x0000000000000000        0x8 CMakeFiles/kiibohd.elf.dir/Output/pjrcUSB/arm/usb_joystick.c.o
 .text          0x0000000000000000        0x0 CMakeFiles/kiibohd.elf.dir/Output/pjrcUSB/arm/usb_joystick.c.o
 .data          0x0000000000000000        0x0 CMakeFiles/kiibohd.elf.dir/Output/pjrcUSB/arm/usb_joystick.c.o
 .bss           0x0000000000000000        0x0 CMakeFiles/kiibohd.elf.dir/Output/pjrcUSB/arm/usb_joystick.c.o
 .text.usb_joystick_send
                0x0000000000000000       0x68 CMakeFiles/kiibohd.elf.dir/Output/pjrcUSB/arm/usb_joystick.c.o
 .bss.transmit_previous_timeout
                0x0000000000000000        0x1 CMakeFiles/kiibohd.elf.dir/Output/pjrcUSB/arm/usb_joystick.c.o
 .debug_info    0x0000000000000000      0x29b CMakeFiles/kiibohd.elf.dir/Output/pjrcUSB/arm/usb_joystick.c.o
 .debug_abbrev  0x0000000000000000      0x16b CMakeFiles/kiibohd.elf.dir/Output/pjrcUSB/arm/usb_joystick.c.o
 .debug_loc     0x0000000000000000       0x76 CMakeFiles/kiibohd.elf.dir/Output/pjrcUSB/arm/usb_joystick.c.o
 .debug_aranges
                0x0000000000000000       0x20 CMakeFiles/kiibohd.elf.dir/Output/pjrcUSB/arm/usb_joystick.c.o
 .debug_ranges  0x0000000000000000       0x10 CMakeFiles/kiibohd.elf.dir/Output/pjrcUSB/arm/usb_joystick.c.o
 .debug_macro   0x0000000000000000      0x161 CMakeFiles/kiibohd.elf.dir/Output/pjrcUSB/arm/usb_joystick.c.o
 .debug_macro   0x0000000000000000      0x868 CMakeFiles/kiibohd.elf.dir/Output/pjrcUSB/arm/usb_joystick.c.o
 .debug_macro   0x0000000000000000       0x58 CMakeFiles/kiibohd.elf.dir/Output/pjrcUSB/arm/usb_joystick.c.o
 .debug_macro   0x0000000000000000       0x16 CMakeFiles/kiibohd.elf.dir/Output/pjrcUSB/arm/usb_joystick.c.o
 .debug_macro   0x0000000000000000       0x35 CMakeFiles/kiibohd.elf.dir/Output/pjrcUSB/arm/usb_joystick.c.o
 .debug_macro   0x0000000000000000       0xa3 CMakeFiles/kiibohd.elf.dir/Output/pjrcUSB/arm/usb_joystick.c.o
 .debug_macro   0x0000000000000000      0x16d CMakeFiles/kiibohd.elf.dir/Output/pjrcUSB/arm/usb_joystick.c.o
 .debug_macro   0x0000000000000000       0x4a CMakeFiles/kiibohd.elf.dir/Output/pjrcUSB/arm/usb_joystick.c.o
 .debug_macro   0x0000000000000000       0x52 CMakeFiles/kiibohd.elf.dir/Output/pjrcUSB/arm/usb_joystick.c.o
 .debug_macro   0x0000000000000000       0x16 CMakeFiles/kiibohd.elf.dir/Output/pjrcUSB/arm/usb_joystick.c.o
 .debug_macro   0x0000000000000000       0x43 CMakeFiles/kiibohd.elf.dir/Output/pjrcUSB/arm/usb_joystick.c.o
 .debug_macro   0x0000000000000000      0x180 CMakeFiles/kiibohd.elf.dir/Output/pjrcUSB/arm/usb_joystick.c.o
 .debug_macro   0x0000000000000000      0x280 CMakeFiles/kiibohd.elf.dir/Output/pjrcUSB/arm/usb_joystick.c.o
 .debug_macro   0x0000000000000000       0x10 CMakeFiles/kiibohd.elf.dir/Output/pjrcUSB/arm/usb_joystick.c.o
 .debug_macro   0x0000000000000000       0x35 CMakeFiles/kiibohd.elf.dir/Output/pjrcUSB/arm/usb_joystick.c.o
 .debug_macro   0x0000000000000000       0x1f CMakeFiles/kiibohd.elf.dir/Output/pjrcUSB/arm/usb_joystick.c.o
 .debug_macro   0x0000000000000000       0x10 CMakeFiles/kiibohd.elf.dir/Output/pjrcUSB/arm/usb_joystick.c.o
 .debug_macro   0x0000000000000000      0x20f CMakeFiles/kiibohd.elf.dir/Output/pjrcUSB/arm/usb_joystick.c.o
 .debug_macro   0x0000000000000000     0x301e CMakeFiles/kiibohd.elf.dir/Output/pjrcUSB/arm/usb_joystick.c.o
 .debug_macro   0x0000000000000000       0x10 CMakeFiles/kiibohd.elf.dir/Output/pjrcUSB/arm/usb_joystick.c.o
 .debug_macro   0x0000000000000000       0x76 CMakeFiles/kiibohd.elf.dir/Output/pjrcUSB/arm/usb_joystick.c.o
 .debug_macro   0x0000000000000000       0x10 CMakeFiles/kiibohd.elf.dir/Output/pjrcUSB/arm/usb_joystick.c.o
 .debug_macro   0x0000000000000000       0x9a CMakeFiles/kiibohd.elf.dir/Output/pjrcUSB/arm/usb_joystick.c.o
 .debug_macro   0x0000000000000000      0x178 CMakeFiles/kiibohd.elf.dir/Output/pjrcUSB/arm/usb_joystick.c.o
 .debug_macro   0x0000000000000000       0x10 CMakeFiles/kiibohd.elf.dir/Output/pjrcUSB/arm/usb_joystick.c.o
 .debug_macro   0x0000000000000000      0x452 CMakeFiles/kiibohd.elf.dir/Output/pjrcUSB/arm/usb_joystick.c.o
 .debug_line    0x0000000000000000      0x29c CMakeFiles/kiibohd.elf.dir/Output/pjrcUSB/arm/usb_joystick.c.o
 .debug_str     0x0000000000000000    0x17a29 CMakeFiles/kiibohd.elf.dir/Output/pjrcUSB/arm/usb_joystick.c.o
 .comment       0x0000000000000000       0x20 CMakeFiles/kiibohd.elf.dir/Output/pjrcUSB/arm/usb_joystick.c.o
 .ARM.attributes
                0x0000000000000000       0x33 CMakeFiles/kiibohd.elf.dir/Output/pjrcUSB/arm/usb_joystick.c.o
 .debug_frame   0x0000000000000000       0x2c CMakeFiles/kiibohd.elf.dir/Output/pjrcUSB/arm/usb_joystick.c.o
 COMMON         0x0000000000000000        0xc CMakeFiles/kiibohd.elf.dir/Output/pjrcUSB/arm/usb_joystick.c.o
 .group         0x0000000000000000        0x8 CMakeFiles/kiibohd.elf.dir/Output/pjrcUSB/arm/usb_keyboard.c.o
 .group         0x0000000000000000        0x8 CMakeFiles/kiibohd.elf.dir/Output/pjrcUSB/arm/usb_keyboard.c.o
 .group         0x0000000000000000        0x8 CMakeFiles/kiibohd.elf.dir/Output/pjrcUSB/arm/usb_keyboard.c.o
 .group         0x0000000000000000        0x8 CMakeFiles/kiibohd.elf.dir/Output/pjrcUSB/arm/usb_keyboard.c.o
 .group         0x0000000000000000        0x8 CMakeFiles/kiibohd.elf.dir/Output/pjrcUSB/arm/usb_keyboard.c.o
 .group         0x0000000000000000        0x8 CMakeFiles/kiibohd.elf.dir/Output/pjrcUSB/arm/usb_keyboard.c.o
 .group         0x0000000000000000        0x8 CMakeFiles/kiibohd.elf.dir/Output/pjrcUSB/arm/usb_keyboard.c.o
 .group         0x0000000000000000        0x8 CMakeFiles/kiibohd.elf.dir/Output/pjrcUSB/arm/usb_keyboard.c.o
 .group         0x0000000000000000        0x8 CMakeFiles/kiibohd.elf.dir/Output/pjrcUSB/arm/usb_keyboard.c.o
 .group         0x0000000000000000        0x8 CMakeFiles/kiibohd.elf.dir/Output/pjrcUSB/arm/usb_keyboard.c.o
 .group         0x0000000000000000        0x8 CMakeFiles/kiibohd.elf.dir/Output/pjrcUSB/arm/usb_keyboard.c.o
 .group         0x0000000000000000        0x8 CMakeFiles/kiibohd.elf.dir/Output/pjrcUSB/arm/usb_keyboard.c.o
 .group         0x0000000000000000        0x8 CMakeFiles/kiibohd.elf.dir/Output/pjrcUSB/arm/usb_keyboard.c.o
 .group         0x0000000000000000        0x8 CMakeFiles/kiibohd.elf.dir/Output/pjrcUSB/arm/usb_keyboard.c.o
 .group         0x0000000000000000        0x8 CMakeFiles/kiibohd.elf.dir/Output/pjrcUSB/arm/usb_keyboard.c.o
 .group         0x0000000000000000        0x8 CMakeFiles/kiibohd.elf.dir/Output/pjrcUSB/arm/usb_keyboard.c.o
 .group         0x0000000000000000        0x8 CMakeFiles/kiibohd.elf.dir/Output/pjrcUSB/arm/usb_keyboard.c.o
 .group         0x0000000000000000        0x8 CMakeFiles/kiibohd.elf.dir/Output/pjrcUSB/arm/usb_keyboard.c.o
 .group         0x0000000000000000        0x8 CMakeFiles/kiibohd.elf.dir/Output/pjrcUSB/arm/usb_keyboard.c.o
 .group         0x0000000000000000        0x8 CMakeFiles/kiibohd.elf.dir/Output/pjrcUSB/arm/usb_keyboard.c.o
 .group         0x0000000000000000        0x8 CMakeFiles/kiibohd.elf.dir/Output/pjrcUSB/arm/usb_keyboard.c.o
 .group         0x0000000000000000        0x8 CMakeFiles/kiibohd.elf.dir/Output/pjrcUSB/arm/usb_keyboard.c.o
 .group         0x0000000000000000        0x8 CMakeFiles/kiibohd.elf.dir/Output/pjrcUSB/arm/usb_keyboard.c.o
 .group         0x0000000000000000        0x8 CMakeFiles/kiibohd.elf.dir/Output/pjrcUSB/arm/usb_keyboard.c.o
 .group         0x0000000000000000        0x8 CMakeFiles/kiibohd.elf.dir/Output/pjrcUSB/arm/usb_keyboard.c.o
 .text          0x0000000000000000        0x0 CMakeFiles/kiibohd.elf.dir/Output/pjrcUSB/arm/usb_keyboard.c.o
 .data          0x0000000000000000        0x0 CMakeFiles/kiibohd.elf.dir/Output/pjrcUSB/arm/usb_keyboard.c.o
 .bss           0x0000000000000000        0x0 CMakeFiles/kiibohd.elf.dir/Output/pjrcUSB/arm/usb_keyboard.c.o
 .debug_macro   0x0000000000000000      0x868 CMakeFiles/kiibohd.elf.dir/Output/pjrcUSB/arm/usb_keyboard.c.o
 .debug_macro   0x0000000000000000       0x58 CMakeFiles/kiibohd.elf.dir/Output/pjrcUSB/arm/usb_keyboard.c.o
 .debug_macro   0x0000000000000000       0x16 CMakeFiles/kiibohd.elf.dir/Output/pjrcUSB/arm/usb_keyboard.c.o
 .debug_macro   0x0000000000000000       0x35 CMakeFiles/kiibohd.elf.dir/Output/pjrcUSB/arm/usb_keyboard.c.o
 .debug_macro   0x0000000000000000       0xa3 CMakeFiles/kiibohd.elf.dir/Output/pjrcUSB/arm/usb_keyboard.c.o
 .debug_macro   0x0000000000000000      0x16d CMakeFiles/kiibohd.elf.dir/Output/pjrcUSB/arm/usb_keyboard.c.o
 .debug_macro   0x0000000000000000       0x4a CMakeFiles/kiibohd.elf.dir/Output/pjrcUSB/arm/usb_keyboard.c.o
 .debug_macro   0x0000000000000000       0x52 CMakeFiles/kiibohd.elf.dir/Output/pjrcUSB/arm/usb_keyboard.c.o
 .debug_macro   0x0000000000000000       0x16 CMakeFiles/kiibohd.elf.dir/Output/pjrcUSB/arm/usb_keyboard.c.o
 .debug_macro   0x0000000000000000       0x43 CMakeFiles/kiibohd.elf.dir/Output/pjrcUSB/arm/usb_keyboard.c.o
 .debug_macro   0x0000000000000000      0x180 CMakeFiles/kiibohd.elf.dir/Output/pjrcUSB/arm/usb_keyboard.c.o
 .debug_macro   0x0000000000000000      0x280 CMakeFiles/kiibohd.elf.dir/Output/pjrcUSB/arm/usb_keyboard.c.o
 .debug_macro   0x0000000000000000       0x10 CMakeFiles/kiibohd.elf.dir/Output/pjrcUSB/arm/usb_keyboard.c.o
 .debug_macro   0x0000000000000000       0x35 CMakeFiles/kiibohd.elf.dir/Output/pjrcUSB/arm/usb_keyboard.c.o
 .debug_macro   0x0000000000000000       0x1f CMakeFiles/kiibohd.elf.dir/Output/pjrcUSB/arm/usb_keyboard.c.o
 .debug_macro   0x0000000000000000       0x10 CMakeFiles/kiibohd.elf.dir/Output/pjrcUSB/arm/usb_keyboard.c.o
 .debug_macro   0x0000000000000000      0x20f CMakeFiles/kiibohd.elf.dir/Output/pjrcUSB/arm/usb_keyboard.c.o
 .debug_macro   0x0000000000000000     0x301e CMakeFiles/kiibohd.elf.dir/Output/pjrcUSB/arm/usb_keyboard.c.o
 .debug_macro   0x0000000000000000       0x10 CMakeFiles/kiibohd.elf.dir/Output/pjrcUSB/arm/usb_keyboard.c.o
 .debug_macro   0x0000000000000000       0x76 CMakeFiles/kiibohd.elf.dir/Output/pjrcUSB/arm/usb_keyboard.c.o
 .debug_macro   0x0000000000000000       0x10 CMakeFiles/kiibohd.elf.dir/Output/pjrcUSB/arm/usb_keyboard.c.o
 .debug_macro   0x0000000000000000       0x9a CMakeFiles/kiibohd.elf.dir/Output/pjrcUSB/arm/usb_keyboard.c.o
 .debug_macro   0x0000000000000000      0x178 CMakeFiles/kiibohd.elf.dir/Output/pjrcUSB/arm/usb_keyboard.c.o
 .debug_macro   0x0000000000000000       0x10 CMakeFiles/kiibohd.elf.dir/Output/pjrcUSB/arm/usb_keyboard.c.o
 .debug_macro   0x0000000000000000      0x452 CMakeFiles/kiibohd.elf.dir/Output/pjrcUSB/arm/usb_keyboard.c.o
 .group         0x0000000000000000        0x8 CMakeFiles/kiibohd.elf.dir/Output/pjrcUSB/arm/usb_mem.c.o
 .group         0x0000000000000000        0x8 CMakeFiles/kiibohd.elf.dir/Output/pjrcUSB/arm/usb_mem.c.o
 .group         0x0000000000000000        0x8 CMakeFiles/kiibohd.elf.dir/Output/pjrcUSB/arm/usb_mem.c.o
 .group         0x0000000000000000        0x8 CMakeFiles/kiibohd.elf.dir/Output/pjrcUSB/arm/usb_mem.c.o
 .group         0x0000000000000000        0x8 CMakeFiles/kiibohd.elf.dir/Output/pjrcUSB/arm/usb_mem.c.o
 .group         0x0000000000000000        0x8 CMakeFiles/kiibohd.elf.dir/Output/pjrcUSB/arm/usb_mem.c.o
 .group         0x0000000000000000        0x8 CMakeFiles/kiibohd.elf.dir/Output/pjrcUSB/arm/usb_mem.c.o
 .group         0x0000000000000000        0x8 CMakeFiles/kiibohd.elf.dir/Output/pjrcUSB/arm/usb_mem.c.o
 .group         0x0000000000000000        0x8 CMakeFiles/kiibohd.elf.dir/Output/pjrcUSB/arm/usb_mem.c.o
 .group         0x0000000000000000        0x8 CMakeFiles/kiibohd.elf.dir/Output/pjrcUSB/arm/usb_mem.c.o
 .group         0x0000000000000000        0x8 CMakeFiles/kiibohd.elf.dir/Output/pjrcUSB/arm/usb_mem.c.o
 .text          0x0000000000000000        0x0 CMakeFiles/kiibohd.elf.dir/Output/pjrcUSB/arm/usb_mem.c.o
 .data          0x0000000000000000        0x0 CMakeFiles/kiibohd.elf.dir/Output/pjrcUSB/arm/usb_mem.c.o
 .bss           0x0000000000000000        0x0 CMakeFiles/kiibohd.elf.dir/Output/pjrcUSB/arm/usb_mem.c.o
 .debug_macro   0x0000000000000000      0x868 CMakeFiles/kiibohd.elf.dir/Output/pjrcUSB/arm/usb_mem.c.o
 .debug_macro   0x0000000000000000       0x16 CMakeFiles/kiibohd.elf.dir/Output/pjrcUSB/arm/usb_mem.c.o
 .debug_macro   0x0000000000000000       0x16 CMakeFiles/kiibohd.elf.dir/Output/pjrcUSB/arm/usb_mem.c.o
 .debug_macro   0x0000000000000000       0x44 CMakeFiles/kiibohd.elf.dir/Output/pjrcUSB/arm/usb_mem.c.o
 .debug_macro   0x0000000000000000      0x209 CMakeFiles/kiibohd.elf.dir/Output/pjrcUSB/arm/usb_mem.c.o
 .debug_macro   0x0000000000000000     0x301e CMakeFiles/kiibohd.elf.dir/Output/pjrcUSB/arm/usb_mem.c.o
 .debug_macro   0x0000000000000000       0x10 CMakeFiles/kiibohd.elf.dir/Output/pjrcUSB/arm/usb_mem.c.o
 .debug_macro   0x0000000000000000      0x16d CMakeFiles/kiibohd.elf.dir/Output/pjrcUSB/arm/usb_mem.c.o
 .debug_macro   0x0000000000000000       0x76 CMakeFiles/kiibohd.elf.dir/Output/pjrcUSB/arm/usb_mem.c.o
 .debug_macro   0x0000000000000000       0x10 CMakeFiles/kiibohd.elf.dir/Output/pjrcUSB/arm/usb_mem.c.o
 .debug_macro   0x0000000000000000      0x178 CMakeFiles/kiibohd.elf.dir/Output/pjrcUSB/arm/usb_mem.c.o
 .group         0x0000000000000000        0x8 CMakeFiles/kiibohd.elf.dir/Output/pjrcUSB/arm/usb_mouse.c.o
 .group         0x0000000000000000        0x8 CMakeFiles/kiibohd.elf.dir/Output/pjrcUSB/arm/usb_mouse.c.o
 .group         0x0000000000000000        0x8 CMakeFiles/kiibohd.elf.dir/Output/pjrcUSB/arm/usb_mouse.c.o
 .group         0x0000000000000000        0x8 CMakeFiles/kiibohd.elf.dir/Output/pjrcUSB/arm/usb_mouse.c.o
 .group         0x0000000000000000        0x8 CMakeFiles/kiibohd.elf.dir/Output/pjrcUSB/arm/usb_mouse.c.o
 .group         0x0000000000000000        0x8 CMakeFiles/kiibohd.elf.dir/Output/pjrcUSB/arm/usb_mouse.c.o
 .group         0x0000000000000000        0x8 CMakeFiles/kiibohd.elf.dir/Output/pjrcUSB/arm/usb_mouse.c.o
 .group         0x0000000000000000        0x8 CMakeFiles/kiibohd.elf.dir/Output/pjrcUSB/arm/usb_mouse.c.o
 .group         0x0000000000000000        0x8 CMakeFiles/kiibohd.elf.dir/Output/pjrcUSB/arm/usb_mouse.c.o
 .group         0x0000000000000000        0x8 CMakeFiles/kiibohd.elf.dir/Output/pjrcUSB/arm/usb_mouse.c.o
 .group         0x0000000000000000        0x8 CMakeFiles/kiibohd.elf.dir/Output/pjrcUSB/arm/usb_mouse.c.o
 .group         0x0000000000000000        0x8 CMakeFiles/kiibohd.elf.dir/Output/pjrcUSB/arm/usb_mouse.c.o
 .group         0x0000000000000000        0x8 CMakeFiles/kiibohd.elf.dir/Output/pjrcUSB/arm/usb_mouse.c.o
 .group         0x0000000000000000        0x8 CMakeFiles/kiibohd.elf.dir/Output/pjrcUSB/arm/usb_mouse.c.o
 .group         0x0000000000000000        0x8 CMakeFiles/kiibohd.elf.dir/Output/pjrcUSB/arm/usb_mouse.c.o
 .group         0x0000000000000000        0x8 CMakeFiles/kiibohd.elf.dir/Output/pjrcUSB/arm/usb_mouse.c.o
 .group         0x0000000000000000        0x8 CMakeFiles/kiibohd.elf.dir/Output/pjrcUSB/arm/usb_mouse.c.o
 .group         0x0000000000000000        0x8 CMakeFiles/kiibohd.elf.dir/Output/pjrcUSB/arm/usb_mouse.c.o
 .group         0x0000000000000000        0x8 CMakeFiles/kiibohd.elf.dir/Output/pjrcUSB/arm/usb_mouse.c.o
 .group         0x0000000000000000        0x8 CMakeFiles/kiibohd.elf.dir/Output/pjrcUSB/arm/usb_mouse.c.o
 .group         0x0000000000000000        0x8 CMakeFiles/kiibohd.elf.dir/Output/pjrcUSB/arm/usb_mouse.c.o
 .group         0x0000000000000000        0x8 CMakeFiles/kiibohd.elf.dir/Output/pjrcUSB/arm/usb_mouse.c.o
 .group         0x0000000000000000        0x8 CMakeFiles/kiibohd.elf.dir/Output/pjrcUSB/arm/usb_mouse.c.o
 .group         0x0000000000000000        0x8 CMakeFiles/kiibohd.elf.dir/Output/pjrcUSB/arm/usb_mouse.c.o
 .group         0x0000000000000000        0x8 CMakeFiles/kiibohd.elf.dir/Output/pjrcUSB/arm/usb_mouse.c.o
 .group         0x0000000000000000        0x8 CMakeFiles/kiibohd.elf.dir/Output/pjrcUSB/arm/usb_mouse.c.o
 .text          0x0000000000000000        0x0 CMakeFiles/kiibohd.elf.dir/Output/pjrcUSB/arm/usb_mouse.c.o
 .data          0x0000000000000000        0x0 CMakeFiles/kiibohd.elf.dir/Output/pjrcUSB/arm/usb_mouse.c.o
 .bss           0x0000000000000000        0x0 CMakeFiles/kiibohd.elf.dir/Output/pjrcUSB/arm/usb_mouse.c.o
 .text.usb_mouse_move
                0x0000000000000000       0xa0 CMakeFiles/kiibohd.elf.dir/Output/pjrcUSB/arm/usb_mouse.c.o
 .text.usb_mouse_buttons
                0x0000000000000000       0x28 CMakeFiles/kiibohd.elf.dir/Output/pjrcUSB/arm/usb_mouse.c.o
 .text.usb_mouse_position
                0x0000000000000000       0xd8 CMakeFiles/kiibohd.elf.dir/Output/pjrcUSB/arm/usb_mouse.c.o
 .text.usb_mouse_screen_size
                0x0000000000000000       0xc8 CMakeFiles/kiibohd.elf.dir/Output/pjrcUSB/arm/usb_mouse.c.o
 .bss.usb_mouse_buttons_state
                0x0000000000000000        0x1 CMakeFiles/kiibohd.elf.dir/Output/pjrcUSB/arm/usb_mouse.c.o
 .data.usb_mouse_scale_x
                0x0000000000000000        0x4 CMakeFiles/kiibohd.elf.dir/Output/pjrcUSB/arm/usb_mouse.c.o
 .data.usb_mouse_scale_y
                0x0000000000000000        0x4 CMakeFiles/kiibohd.elf.dir/Output/pjrcUSB/arm/usb_mouse.c.o
 .data.usb_mouse_position_x
                0x0000000000000000        0x2 CMakeFiles/kiibohd.elf.dir/Output/pjrcUSB/arm/usb_mouse.c.o
 .data.usb_mouse_position_y
                0x0000000000000000        0x2 CMakeFiles/kiibohd.elf.dir/Output/pjrcUSB/arm/usb_mouse.c.o
 .bss.transmit_previous_timeout
                0x0000000000000000        0x1 CMakeFiles/kiibohd.elf.dir/Output/pjrcUSB/arm/usb_mouse.c.o
 .data.usb_mouse_offset_x
                0x0000000000000000        0x4 CMakeFiles/kiibohd.elf.dir/Output/pjrcUSB/arm/usb_mouse.c.o
 .data.usb_mouse_offset_y
                0x0000000000000000        0x4 CMakeFiles/kiibohd.elf.dir/Output/pjrcUSB/arm/usb_mouse.c.o
 .data.usb_mouse_resolution_x
                0x0000000000000000        0x2 CMakeFiles/kiibohd.elf.dir/Output/pjrcUSB/arm/usb_mouse.c.o
 .data.usb_mouse_resolution_y
                0x0000000000000000        0x2 CMakeFiles/kiibohd.elf.dir/Output/pjrcUSB/arm/usb_mouse.c.o
 .debug_info    0x0000000000000000      0x44d CMakeFiles/kiibohd.elf.dir/Output/pjrcUSB/arm/usb_mouse.c.o
 .debug_abbrev  0x0000000000000000      0x1a7 CMakeFiles/kiibohd.elf.dir/Output/pjrcUSB/arm/usb_mouse.c.o
 .debug_loc     0x0000000000000000      0x33f CMakeFiles/kiibohd.elf.dir/Output/pjrcUSB/arm/usb_mouse.c.o
 .debug_aranges
                0x0000000000000000       0x38 CMakeFiles/kiibohd.elf.dir/Output/pjrcUSB/arm/usb_mouse.c.o
 .debug_ranges  0x0000000000000000       0x28 CMakeFiles/kiibohd.elf.dir/Output/pjrcUSB/arm/usb_mouse.c.o
 .debug_macro   0x0000000000000000      0x17e CMakeFiles/kiibohd.elf.dir/Output/pjrcUSB/arm/usb_mouse.c.o
 .debug_macro   0x0000000000000000      0x868 CMakeFiles/kiibohd.elf.dir/Output/pjrcUSB/arm/usb_mouse.c.o
 .debug_macro   0x0000000000000000       0x58 CMakeFiles/kiibohd.elf.dir/Output/pjrcUSB/arm/usb_mouse.c.o
 .debug_macro   0x0000000000000000       0x16 CMakeFiles/kiibohd.elf.dir/Output/pjrcUSB/arm/usb_mouse.c.o
 .debug_macro   0x0000000000000000       0x35 CMakeFiles/kiibohd.elf.dir/Output/pjrcUSB/arm/usb_mouse.c.o
 .debug_macro   0x0000000000000000       0xa3 CMakeFiles/kiibohd.elf.dir/Output/pjrcUSB/arm/usb_mouse.c.o
 .debug_macro   0x0000000000000000      0x16d CMakeFiles/kiibohd.elf.dir/Output/pjrcUSB/arm/usb_mouse.c.o
 .debug_macro   0x0000000000000000       0x4a CMakeFiles/kiibohd.elf.dir/Output/pjrcUSB/arm/usb_mouse.c.o
 .debug_macro   0x0000000000000000       0x52 CMakeFiles/kiibohd.elf.dir/Output/pjrcUSB/arm/usb_mouse.c.o
 .debug_macro   0x0000000000000000       0x16 CMakeFiles/kiibohd.elf.dir/Output/pjrcUSB/arm/usb_mouse.c.o
 .debug_macro   0x0000000000000000       0x43 CMakeFiles/kiibohd.elf.dir/Output/pjrcUSB/arm/usb_mouse.c.o
 .debug_macro   0x0000000000000000      0x180 CMakeFiles/kiibohd.elf.dir/Output/pjrcUSB/arm/usb_mouse.c.o
 .debug_macro   0x0000000000000000      0x280 CMakeFiles/kiibohd.elf.dir/Output/pjrcUSB/arm/usb_mouse.c.o
 .debug_macro   0x0000000000000000       0x10 CMakeFiles/kiibohd.elf.dir/Output/pjrcUSB/arm/usb_mouse.c.o
 .debug_macro   0x0000000000000000       0x35 CMakeFiles/kiibohd.elf.dir/Output/pjrcUSB/arm/usb_mouse.c.o
 .debug_macro   0x0000000000000000       0x1f CMakeFiles/kiibohd.elf.dir/Output/pjrcUSB/arm/usb_mouse.c.o
 .debug_macro   0x0000000000000000       0x10 CMakeFiles/kiibohd.elf.dir/Output/pjrcUSB/arm/usb_mouse.c.o
 .debug_macro   0x0000000000000000      0x20f CMakeFiles/kiibohd.elf.dir/Output/pjrcUSB/arm/usb_mouse.c.o
 .debug_macro   0x0000000000000000     0x301e CMakeFiles/kiibohd.elf.dir/Output/pjrcUSB/arm/usb_mouse.c.o
 .debug_macro   0x0000000000000000       0x10 CMakeFiles/kiibohd.elf.dir/Output/pjrcUSB/arm/usb_mouse.c.o
 .debug_macro   0x0000000000000000       0x76 CMakeFiles/kiibohd.elf.dir/Output/pjrcUSB/arm/usb_mouse.c.o
 .debug_macro   0x0000000000000000       0x10 CMakeFiles/kiibohd.elf.dir/Output/pjrcUSB/arm/usb_mouse.c.o
 .debug_macro   0x0000000000000000       0x9a CMakeFiles/kiibohd.elf.dir/Output/pjrcUSB/arm/usb_mouse.c.o
 .debug_macro   0x0000000000000000      0x178 CMakeFiles/kiibohd.elf.dir/Output/pjrcUSB/arm/usb_mouse.c.o
 .debug_macro   0x0000000000000000       0x10 CMakeFiles/kiibohd.elf.dir/Output/pjrcUSB/arm/usb_mouse.c.o
 .debug_macro   0x0000000000000000      0x452 CMakeFiles/kiibohd.elf.dir/Output/pjrcUSB/arm/usb_mouse.c.o
 .debug_macro   0x0000000000000000       0x1c CMakeFiles/kiibohd.elf.dir/Output/pjrcUSB/arm/usb_mouse.c.o
 .debug_line    0x0000000000000000      0x349 CMakeFiles/kiibohd.elf.dir/Output/pjrcUSB/arm/usb_mouse.c.o
 .debug_str     0x0000000000000000    0x17c38 CMakeFiles/kiibohd.elf.dir/Output/pjrcUSB/arm/usb_mouse.c.o
 .comment       0x0000000000000000       0x20 CMakeFiles/kiibohd.elf.dir/Output/pjrcUSB/arm/usb_mouse.c.o
 .ARM.attributes
                0x0000000000000000       0x33 CMakeFiles/kiibohd.elf.dir/Output/pjrcUSB/arm/usb_mouse.c.o
 .debug_frame   0x0000000000000000       0x84 CMakeFiles/kiibohd.elf.dir/Output/pjrcUSB/arm/usb_mouse.c.o
 .group         0x0000000000000000        0x8 CMakeFiles/kiibohd.elf.dir/Output/pjrcUSB/arm/usb_serial.c.o
 .group         0x0000000000000000        0x8 CMakeFiles/kiibohd.elf.dir/Output/pjrcUSB/arm/usb_serial.c.o
 .group         0x0000000000000000        0x8 CMakeFiles/kiibohd.elf.dir/Output/pjrcUSB/arm/usb_serial.c.o
 .group         0x0000000000000000        0x8 CMakeFiles/kiibohd.elf.dir/Output/pjrcUSB/arm/usb_serial.c.o
 .group         0x0000000000000000        0x8 CMakeFiles/kiibohd.elf.dir/Output/pjrcUSB/arm/usb_serial.c.o
 .group         0x0000000000000000        0x8 CMakeFiles/kiibohd.elf.dir/Output/pjrcUSB/arm/usb_serial.c.o
 .group         0x0000000000000000        0x8 CMakeFiles/kiibohd.elf.dir/Output/pjrcUSB/arm/usb_serial.c.o
 .group         0x0000000000000000        0x8 CMakeFiles/kiibohd.elf.dir/Output/pjrcUSB/arm/usb_serial.c.o
 .group         0x0000000000000000        0x8 CMakeFiles/kiibohd.elf.dir/Output/pjrcUSB/arm/usb_serial.c.o
 .group         0x0000000000000000        0x8 CMakeFiles/kiibohd.elf.dir/Output/pjrcUSB/arm/usb_serial.c.o
 .group         0x0000000000000000        0x8 CMakeFiles/kiibohd.elf.dir/Output/pjrcUSB/arm/usb_serial.c.o
 .group         0x0000000000000000        0x8 CMakeFiles/kiibohd.elf.dir/Output/pjrcUSB/arm/usb_serial.c.o
 .group         0x0000000000000000        0x8 CMakeFiles/kiibohd.elf.dir/Output/pjrcUSB/arm/usb_serial.c.o
 .group         0x0000000000000000        0x8 CMakeFiles/kiibohd.elf.dir/Output/pjrcUSB/arm/usb_serial.c.o
 .group         0x0000000000000000        0x8 CMakeFiles/kiibohd.elf.dir/Output/pjrcUSB/arm/usb_serial.c.o
 .group         0x0000000000000000        0x8 CMakeFiles/kiibohd.elf.dir/Output/pjrcUSB/arm/usb_serial.c.o
 .group         0x0000000000000000        0x8 CMakeFiles/kiibohd.elf.dir/Output/pjrcUSB/arm/usb_serial.c.o
 .group         0x0000000000000000        0x8 CMakeFiles/kiibohd.elf.dir/Output/pjrcUSB/arm/usb_serial.c.o
 .group         0x0000000000000000        0x8 CMakeFiles/kiibohd.elf.dir/Output/pjrcUSB/arm/usb_serial.c.o
 .group         0x0000000000000000        0x8 CMakeFiles/kiibohd.elf.dir/Output/pjrcUSB/arm/usb_serial.c.o
 .group         0x0000000000000000        0x8 CMakeFiles/kiibohd.elf.dir/Output/pjrcUSB/arm/usb_serial.c.o
 .group         0x0000000000000000        0x8 CMakeFiles/kiibohd.elf.dir/Output/pjrcUSB/arm/usb_serial.c.o
 .group         0x0000000000000000        0x8 CMakeFiles/kiibohd.elf.dir/Output/pjrcUSB/arm/usb_serial.c.o
 .group         0x0000000000000000        0x8 CMakeFiles/kiibohd.elf.dir/Output/pjrcUSB/arm/usb_serial.c.o
 .group         0x0000000000000000        0x8 CMakeFiles/kiibohd.elf.dir/Output/pjrcUSB/arm/usb_serial.c.o
 .text          0x0000000000000000        0x0 CMakeFiles/kiibohd.elf.dir/Output/pjrcUSB/arm/usb_serial.c.o
 .data          0x0000000000000000        0x0 CMakeFiles/kiibohd.elf.dir/Output/pjrcUSB/arm/usb_serial.c.o
 .bss           0x0000000000000000        0x0 CMakeFiles/kiibohd.elf.dir/Output/pjrcUSB/arm/usb_serial.c.o
 .text.usb_serial_peekchar
                0x0000000000000000       0x38 CMakeFiles/kiibohd.elf.dir/Output/pjrcUSB/arm/usb_serial.c.o
 .text.usb_serial_read
                0x0000000000000000       0x7c CMakeFiles/kiibohd.elf.dir/Output/pjrcUSB/arm/usb_serial.c.o
 .text.usb_serial_flush_input
                0x0000000000000000       0x30 CMakeFiles/kiibohd.elf.dir/Output/pjrcUSB/arm/usb_serial.c.o
 .text.usb_serial_putchar
                0x0000000000000000       0x16 CMakeFiles/kiibohd.elf.dir/Output/pjrcUSB/arm/usb_serial.c.o
 .text.usb_serial_flush_output
                0x0000000000000000       0x5c CMakeFiles/kiibohd.elf.dir/Output/pjrcUSB/arm/usb_serial.c.o
 .debug_macro   0x0000000000000000      0x868 CMakeFiles/kiibohd.elf.dir/Output/pjrcUSB/arm/usb_serial.c.o
 .debug_macro   0x0000000000000000       0x58 CMakeFiles/kiibohd.elf.dir/Output/pjrcUSB/arm/usb_serial.c.o
 .debug_macro   0x0000000000000000       0x16 CMakeFiles/kiibohd.elf.dir/Output/pjrcUSB/arm/usb_serial.c.o
 .debug_macro   0x0000000000000000       0x35 CMakeFiles/kiibohd.elf.dir/Output/pjrcUSB/arm/usb_serial.c.o
 .debug_macro   0x0000000000000000       0xa3 CMakeFiles/kiibohd.elf.dir/Output/pjrcUSB/arm/usb_serial.c.o
 .debug_macro   0x0000000000000000      0x16d CMakeFiles/kiibohd.elf.dir/Output/pjrcUSB/arm/usb_serial.c.o
 .debug_macro   0x0000000000000000       0x4a CMakeFiles/kiibohd.elf.dir/Output/pjrcUSB/arm/usb_serial.c.o
 .debug_macro   0x0000000000000000       0x52 CMakeFiles/kiibohd.elf.dir/Output/pjrcUSB/arm/usb_serial.c.o
 .debug_macro   0x0000000000000000       0x16 CMakeFiles/kiibohd.elf.dir/Output/pjrcUSB/arm/usb_serial.c.o
 .debug_macro   0x0000000000000000       0x43 CMakeFiles/kiibohd.elf.dir/Output/pjrcUSB/arm/usb_serial.c.o
 .debug_macro   0x0000000000000000      0x180 CMakeFiles/kiibohd.elf.dir/Output/pjrcUSB/arm/usb_serial.c.o
 .debug_macro   0x0000000000000000      0x280 CMakeFiles/kiibohd.elf.dir/Output/pjrcUSB/arm/usb_serial.c.o
 .debug_macro   0x0000000000000000       0x10 CMakeFiles/kiibohd.elf.dir/Output/pjrcUSB/arm/usb_serial.c.o
 .debug_macro   0x0000000000000000       0x35 CMakeFiles/kiibohd.elf.dir/Output/pjrcUSB/arm/usb_serial.c.o
 .debug_macro   0x0000000000000000       0x1f CMakeFiles/kiibohd.elf.dir/Output/pjrcUSB/arm/usb_serial.c.o
 .debug_macro   0x0000000000000000       0x10 CMakeFiles/kiibohd.elf.dir/Output/pjrcUSB/arm/usb_serial.c.o
 .debug_macro   0x0000000000000000      0x20f CMakeFiles/kiibohd.elf.dir/Output/pjrcUSB/arm/usb_serial.c.o
 .debug_macro   0x0000000000000000     0x301e CMakeFiles/kiibohd.elf.dir/Output/pjrcUSB/arm/usb_serial.c.o
 .debug_macro   0x0000000000000000       0x10 CMakeFiles/kiibohd.elf.dir/Output/pjrcUSB/arm/usb_serial.c.o
 .debug_macro   0x0000000000000000       0x76 CMakeFiles/kiibohd.elf.dir/Output/pjrcUSB/arm/usb_serial.c.o
 .debug_macro   0x0000000000000000       0x10 CMakeFiles/kiibohd.elf.dir/Output/pjrcUSB/arm/usb_serial.c.o
 .debug_macro   0x0000000000000000      0x178 CMakeFiles/kiibohd.elf.dir/Output/pjrcUSB/arm/usb_serial.c.o
 .debug_macro   0x0000000000000000       0x10 CMakeFiles/kiibohd.elf.dir/Output/pjrcUSB/arm/usb_serial.c.o
 .debug_macro   0x0000000000000000      0x452 CMakeFiles/kiibohd.elf.dir/Output/pjrcUSB/arm/usb_serial.c.o
 .debug_macro   0x0000000000000000       0x22 CMakeFiles/kiibohd.elf.dir/Output/pjrcUSB/arm/usb_serial.c.o
 .group         0x0000000000000000        0x8 CMakeFiles/kiibohd.elf.dir/Debug/cli/cli.c.o
 .group         0x0000000000000000        0x8 CMakeFiles/kiibohd.elf.dir/Debug/cli/cli.c.o
 .group         0x0000000000000000        0x8 CMakeFiles/kiibohd.elf.dir/Debug/cli/cli.c.o
 .group         0x0000000000000000        0x8 CMakeFiles/kiibohd.elf.dir/Debug/cli/cli.c.o
 .group         0x0000000000000000        0x8 CMakeFiles/kiibohd.elf.dir/Debug/cli/cli.c.o
 .group         0x0000000000000000        0x8 CMakeFiles/kiibohd.elf.dir/Debug/cli/cli.c.o
 .group         0x0000000000000000        0x8 CMakeFiles/kiibohd.elf.dir/Debug/cli/cli.c.o
 .group         0x0000000000000000        0x8 CMakeFiles/kiibohd.elf.dir/Debug/cli/cli.c.o
 .group         0x0000000000000000        0x8 CMakeFiles/kiibohd.elf.dir/Debug/cli/cli.c.o
 .group         0x0000000000000000        0x8 CMakeFiles/kiibohd.elf.dir/Debug/cli/cli.c.o
 .group         0x0000000000000000        0x8 CMakeFiles/kiibohd.elf.dir/Debug/cli/cli.c.o
 .group         0x0000000000000000        0x8 CMakeFiles/kiibohd.elf.dir/Debug/cli/cli.c.o
 .text          0x0000000000000000        0x0 CMakeFiles/kiibohd.elf.dir/Debug/cli/cli.c.o
 .data          0x0000000000000000        0x0 CMakeFiles/kiibohd.elf.dir/Debug/cli/cli.c.o
 .bss           0x0000000000000000        0x0 CMakeFiles/kiibohd.elf.dir/Debug/cli/cli.c.o
 .debug_macro   0x0000000000000000      0x868 CMakeFiles/kiibohd.elf.dir/Debug/cli/cli.c.o
 .debug_macro   0x0000000000000000       0x76 CMakeFiles/kiibohd.elf.dir/Debug/cli/cli.c.o
 .debug_macro   0x0000000000000000       0x16 CMakeFiles/kiibohd.elf.dir/Debug/cli/cli.c.o
 .debug_macro   0x0000000000000000       0x16 CMakeFiles/kiibohd.elf.dir/Debug/cli/cli.c.o
 .debug_macro   0x0000000000000000       0x44 CMakeFiles/kiibohd.elf.dir/Debug/cli/cli.c.o
 .debug_macro   0x0000000000000000      0x209 CMakeFiles/kiibohd.elf.dir/Debug/cli/cli.c.o
 .debug_macro   0x0000000000000000     0x301e CMakeFiles/kiibohd.elf.dir/Debug/cli/cli.c.o
 .debug_macro   0x0000000000000000       0x10 CMakeFiles/kiibohd.elf.dir/Debug/cli/cli.c.o
 .debug_macro   0x0000000000000000       0x10 CMakeFiles/kiibohd.elf.dir/Debug/cli/cli.c.o
 .debug_macro   0x0000000000000000       0x3a CMakeFiles/kiibohd.elf.dir/Debug/cli/cli.c.o
 .debug_macro   0x0000000000000000       0x9a CMakeFiles/kiibohd.elf.dir/Debug/cli/cli.c.o
 .debug_macro   0x0000000000000000      0x11b CMakeFiles/kiibohd.elf.dir/Debug/cli/cli.c.o
 .group         0x0000000000000000        0x8 CMakeFiles/kiibohd.elf.dir/Debug/led/led.c.o
 .group         0x0000000000000000        0x8 CMakeFiles/kiibohd.elf.dir/Debug/led/led.c.o
 .group         0x0000000000000000        0x8 CMakeFiles/kiibohd.elf.dir/Debug/led/led.c.o
 .group         0x0000000000000000        0x8 CMakeFiles/kiibohd.elf.dir/Debug/led/led.c.o
 .group         0x0000000000000000        0x8 CMakeFiles/kiibohd.elf.dir/Debug/led/led.c.o
 .group         0x0000000000000000        0x8 CMakeFiles/kiibohd.elf.dir/Debug/led/led.c.o
 .group         0x0000000000000000        0x8 CMakeFiles/kiibohd.elf.dir/Debug/led/led.c.o
 .text          0x0000000000000000        0x0 CMakeFiles/kiibohd.elf.dir/Debug/led/led.c.o
 .data          0x0000000000000000        0x0 CMakeFiles/kiibohd.elf.dir/Debug/led/led.c.o
 .bss           0x0000000000000000        0x0 CMakeFiles/kiibohd.elf.dir/Debug/led/led.c.o
 .debug_macro   0x0000000000000000      0x868 CMakeFiles/kiibohd.elf.dir/Debug/led/led.c.o
 .debug_macro   0x0000000000000000       0x16 CMakeFiles/kiibohd.elf.dir/Debug/led/led.c.o
 .debug_macro   0x0000000000000000       0x16 CMakeFiles/kiibohd.elf.dir/Debug/led/led.c.o
 .debug_macro   0x0000000000000000       0x44 CMakeFiles/kiibohd.elf.dir/Debug/led/led.c.o
 .debug_macro   0x0000000000000000      0x209 CMakeFiles/kiibohd.elf.dir/Debug/led/led.c.o
 .debug_macro   0x0000000000000000     0x301e CMakeFiles/kiibohd.elf.dir/Debug/led/led.c.o
 .debug_macro   0x0000000000000000       0x10 CMakeFiles/kiibohd.elf.dir/Debug/led/led.c.o
 .group         0x0000000000000000        0x8 CMakeFiles/kiibohd.elf.dir/Debug/print/print.c.o
 .group         0x0000000000000000        0x8 CMakeFiles/kiibohd.elf.dir/Debug/print/print.c.o
 .group         0x0000000000000000        0x8 CMakeFiles/kiibohd.elf.dir/Debug/print/print.c.o
 .group         0x0000000000000000        0x8 CMakeFiles/kiibohd.elf.dir/Debug/print/print.c.o
 .group         0x0000000000000000        0x8 CMakeFiles/kiibohd.elf.dir/Debug/print/print.c.o
 .group         0x0000000000000000        0x8 CMakeFiles/kiibohd.elf.dir/Debug/print/print.c.o
 .group         0x0000000000000000        0x8 CMakeFiles/kiibohd.elf.dir/Debug/print/print.c.o
 .group         0x0000000000000000        0x8 CMakeFiles/kiibohd.elf.dir/Debug/print/print.c.o
 .text          0x0000000000000000        0x0 CMakeFiles/kiibohd.elf.dir/Debug/print/print.c.o
 .data          0x0000000000000000        0x0 CMakeFiles/kiibohd.elf.dir/Debug/print/print.c.o
 .bss           0x0000000000000000        0x0 CMakeFiles/kiibohd.elf.dir/Debug/print/print.c.o
 .text.int32ToStr
                0x0000000000000000       0x2c CMakeFiles/kiibohd.elf.dir/Debug/print/print.c.o
 .text.printInt32
                0x0000000000000000       0x14 CMakeFiles/kiibohd.elf.dir/Debug/print/print.c.o
 .debug_macro   0x0000000000000000      0x868 CMakeFiles/kiibohd.elf.dir/Debug/print/print.c.o
 .debug_macro   0x0000000000000000       0x16 CMakeFiles/kiibohd.elf.dir/Debug/print/print.c.o
 .debug_macro   0x0000000000000000       0x44 CMakeFiles/kiibohd.elf.dir/Debug/print/print.c.o
 .debug_macro   0x0000000000000000      0x209 CMakeFiles/kiibohd.elf.dir/Debug/print/print.c.o
 .debug_macro   0x0000000000000000       0x76 CMakeFiles/kiibohd.elf.dir/Debug/print/print.c.o
 .debug_macro   0x0000000000000000       0x10 CMakeFiles/kiibohd.elf.dir/Debug/print/print.c.o
 .debug_macro   0x0000000000000000       0x9a CMakeFiles/kiibohd.elf.dir/Debug/print/print.c.o

Memory Configuration

Name             Origin             Length             Attributes
FLASH            0x0000000000002000 0x000000000003e000 xr
RAM              0x000000001fff8000 0x0000000000010000 xrw
*default*        0x0000000000000000 0xffffffffffffffff

Linker script and memory map

LOAD CMakeFiles/kiibohd.elf.dir/main.c.o
LOAD CMakeFiles/kiibohd.elf.dir/Lib/mk20dx.c.o
LOAD CMakeFiles/kiibohd.elf.dir/Lib/delay.c.o
LOAD CMakeFiles/kiibohd.elf.dir/Scan/ISSILed/led_scan.c.o
LOAD CMakeFiles/kiibohd.elf.dir/Scan/MatrixARM/matrix_scan.c.o
LOAD CMakeFiles/kiibohd.elf.dir/Scan/STLcd/lcd_scan.c.o
LOAD CMakeFiles/kiibohd.elf.dir/Scan/UARTConnect/connect_scan.c.o
LOAD CMakeFiles/kiibohd.elf.dir/Scan/MDErgo1/scan_loop.c.o
LOAD CMakeFiles/kiibohd.elf.dir/Macro/PartialMap/macro.c.o
LOAD CMakeFiles/kiibohd.elf.dir/Output/pjrcUSB/output_com.c.o
LOAD CMakeFiles/kiibohd.elf.dir/Output/pjrcUSB/arm/usb_desc.c.o
LOAD CMakeFiles/kiibohd.elf.dir/Output/pjrcUSB/arm/usb_dev.c.o
LOAD CMakeFiles/kiibohd.elf.dir/Output/pjrcUSB/arm/usb_joystick.c.o
LOAD CMakeFiles/kiibohd.elf.dir/Output/pjrcUSB/arm/usb_keyboard.c.o
LOAD CMakeFiles/kiibohd.elf.dir/Output/pjrcUSB/arm/usb_mem.c.o
LOAD CMakeFiles/kiibohd.elf.dir/Output/pjrcUSB/arm/usb_mouse.c.o
LOAD CMakeFiles/kiibohd.elf.dir/Output/pjrcUSB/arm/usb_serial.c.o
LOAD CMakeFiles/kiibohd.elf.dir/Debug/cli/cli.c.o
LOAD CMakeFiles/kiibohd.elf.dir/Debug/led/led.c.o
LOAD CMakeFiles/kiibohd.elf.dir/Debug/print/print.c.o

.text           0x0000000000002000     0xa284
                0x0000000000000000                . = 0x0
 *(.vectors)
 .vectors       0x0000000000002000      0x1bc CMakeFiles/kiibohd.elf.dir/Lib/mk20dx.c.o
                0x0000000000002000                gVectors
 *(.startup*)
 .startup       0x00000000000021bc      0x14c CMakeFiles/kiibohd.elf.dir/Lib/mk20dx.c.o
                0x00000000000021bc                ResetHandler
                0x0000000000000400                . = 0x400
 *fill*         0x0000000000002308       0xf8 
 *(.flashconfig)
 *(.text*)
 .text.startup.main
                0x0000000000002400       0x2c CMakeFiles/kiibohd.elf.dir/main.c.o
                0x0000000000002400                main
 .text.systick_default_isr
                0x000000000000242c       0x10 CMakeFiles/kiibohd.elf.dir/Lib/mk20dx.c.o
                0x000000000000242c                systick_isr
                0x000000000000242c                systick_default_isr
 .text.fault_isr
                0x000000000000243c       0x40 CMakeFiles/kiibohd.elf.dir/Lib/mk20dx.c.o
                0x000000000000243c                fault_isr
 .text.unused_isr
                0x000000000000247c        0x6 CMakeFiles/kiibohd.elf.dir/Lib/mk20dx.c.o
                0x000000000000247c                adc0_isr
                0x000000000000247c                dma_ch6_isr
                0x000000000000247c                uart0_lon_isr
                0x000000000000247c                dma_ch8_isr
                0x000000000000247c                dma_error_isr
                0x000000000000247c                portd_isr
                0x000000000000247c                porte_isr
                0x000000000000247c                portb_isr
                0x000000000000247c                spi1_isr
                0x000000000000247c                uart3_status_isr
                0x000000000000247c                mcm_isr
                0x000000000000247c                uart1_status_isr
                0x000000000000247c                watchdog_isr
                0x000000000000247c                i2c1_isr
                0x000000000000247c                dma_ch11_isr
                0x000000000000247c                i2c2_isr
                0x000000000000247c                pit1_isr
                0x000000000000247c                dma_ch4_isr
                0x000000000000247c                software_isr
                0x000000000000247c                dma_ch7_isr
                0x000000000000247c                lptmr_isr
                0x000000000000247c                ftm2_isr
                0x000000000000247c                uart5_status_isr
                0x000000000000247c                dma_ch9_isr
                0x000000000000247c                pit2_isr
                0x000000000000247c                pit0_isr
                0x000000000000247c                can0_wakeup_isr
                0x000000000000247c                flash_cmd_isr
                0x000000000000247c                uart2_status_isr
                0x000000000000247c                svcall_isr
                0x000000000000247c                dma_ch15_isr
                0x000000000000247c                uart1_error_isr
                0x000000000000247c                unused_isr
                0x000000000000247c                spi0_isr
                0x000000000000247c                dma_ch3_isr
                0x000000000000247c                flash_error_isr
                0x000000000000247c                uart5_error_isr
                0x000000000000247c                rtc_seconds_isr
                0x000000000000247c                pdb_isr
                0x000000000000247c                dac1_isr
                0x000000000000247c                dma_ch14_isr
                0x000000000000247c                rtc_alarm_isr
                0x000000000000247c                dma_ch2_isr
                0x000000000000247c                ftm1_isr
                0x000000000000247c                dma_ch13_isr
                0x000000000000247c                uart2_error_isr
                0x000000000000247c                usb_charge_isr
                0x000000000000247c                cmt_isr
                0x000000000000247c                ftm3_isr
                0x000000000000247c                tsi0_isr
                0x000000000000247c                spi2_isr
                0x000000000000247c                can0_bus_off_isr
                0x000000000000247c                uart3_error_isr
                0x000000000000247c                porta_isr
                0x000000000000247c                low_voltage_isr
                0x000000000000247c                can0_error_isr
                0x000000000000247c                dma_ch12_isr
                0x000000000000247c                pit3_isr
                0x000000000000247c                portc_isr
                0x000000000000247c                debugmonitor_isr
                0x000000000000247c                cmp1_isr
                0x000000000000247c                ftm0_isr
                0x000000000000247c                i2s0_rx_isr
                0x000000000000247c                uart4_error_isr
                0x000000000000247c                can0_message_isr
                0x000000000000247c                sdhc_isr
                0x000000000000247c                dma_ch10_isr
                0x000000000000247c                uart0_error_isr
                0x000000000000247c                i2s0_tx_isr
                0x000000000000247c                adc1_isr
                0x000000000000247c                cmp0_isr
                0x000000000000247c                dac0_isr
                0x000000000000247c                uart0_status_isr
                0x000000000000247c                mcg_isr
                0x000000000000247c                dma_ch1_isr
                0x000000000000247c                dma_ch5_isr
                0x000000000000247c                can0_rx_warn_isr
                0x000000000000247c                can0_tx_warn_isr
                0x000000000000247c                uart4_status_isr
                0x000000000000247c                cmp2_isr
                0x000000000000247c                pendablesrvreq_isr
                0x000000000000247c                wakeup_isr
                0x000000000000247c                dma_ch0_isr
 *fill*         0x0000000000002482        0x2 
 .text.nmi_default_isr
                0x0000000000002484        0xc CMakeFiles/kiibohd.elf.dir/Lib/mk20dx.c.o
                0x0000000000002484                nmi_isr
                0x0000000000002484                nmi_default_isr
 .text.hard_fault_default_isr
                0x0000000000002490       0x34 CMakeFiles/kiibohd.elf.dir/Lib/mk20dx.c.o
                0x0000000000002490                hard_fault_isr
                0x0000000000002490                hard_fault_default_isr
 .text.memmanage_fault_default_isr
                0x00000000000024c4       0x40 CMakeFiles/kiibohd.elf.dir/Lib/mk20dx.c.o
                0x00000000000024c4                memmanage_fault_default_isr
                0x00000000000024c4                memmanage_fault_isr
 .text.bus_fault_default_isr
                0x0000000000002504       0x40 CMakeFiles/kiibohd.elf.dir/Lib/mk20dx.c.o
                0x0000000000002504                bus_fault_isr
                0x0000000000002504                bus_fault_default_isr
 .text.usage_fault_default_isr
                0x0000000000002544       0x28 CMakeFiles/kiibohd.elf.dir/Lib/mk20dx.c.o
                0x0000000000002544                usage_fault_default_isr
                0x0000000000002544                usage_fault_isr
 .text.memset   0x000000000000256c       0x10 CMakeFiles/kiibohd.elf.dir/Lib/mk20dx.c.o
                0x000000000000256c                memset
 .text.memcpy   0x000000000000257c       0x12 CMakeFiles/kiibohd.elf.dir/Lib/mk20dx.c.o
                0x000000000000257c                memcpy
 .text.yield    0x000000000000258e        0x2 CMakeFiles/kiibohd.elf.dir/Lib/delay.c.o
                0x000000000000258e                yield
 .text.micros   0x0000000000002590       0x44 CMakeFiles/kiibohd.elf.dir/Lib/delay.c.o
                0x0000000000002590                micros
 .text.delay    0x00000000000025d4       0x26 CMakeFiles/kiibohd.elf.dir/Lib/delay.c.o
                0x00000000000025d4                delay
 .text.I2C_BufferLen
                0x00000000000025fa       0x12 CMakeFiles/kiibohd.elf.dir/Scan/ISSILed/led_scan.c.o
                0x00000000000025fa                I2C_BufferLen
 .text.I2C_BufferPush
                0x000000000000260c       0x60 CMakeFiles/kiibohd.elf.dir/Scan/ISSILed/led_scan.c.o
                0x000000000000260c                I2C_BufferPush
 .text.I2C_TxBufferPop
                0x000000000000266c       0xa4 CMakeFiles/kiibohd.elf.dir/Scan/ISSILed/led_scan.c.o
                0x000000000000266c                I2C_TxBufferPop
 .text.i2c0_isr
                0x0000000000002710      0x118 CMakeFiles/kiibohd.elf.dir/Scan/ISSILed/led_scan.c.o
                0x0000000000002710                i2c0_isr
 .text.I2C_Send
                0x0000000000002828       0xe4 CMakeFiles/kiibohd.elf.dir/Scan/ISSILed/led_scan.c.o
                0x0000000000002828                I2C_Send
 .text.LED_zeroPages
                0x000000000000290c       0x74 CMakeFiles/kiibohd.elf.dir/Scan/ISSILed/led_scan.c.o
                0x000000000000290c                LED_zeroPages
 .text.cliFunc_ledZero
                0x0000000000002980       0x1c CMakeFiles/kiibohd.elf.dir/Scan/ISSILed/led_scan.c.o
                0x0000000000002980                cliFunc_ledZero
 .text.LED_sendPage
                0x000000000000299c       0x42 CMakeFiles/kiibohd.elf.dir/Scan/ISSILed/led_scan.c.o
                0x000000000000299c                LED_sendPage
 *fill*         0x00000000000029de        0x2 
 .text.cliFunc_ledTest
                0x00000000000029e0       0x20 CMakeFiles/kiibohd.elf.dir/Scan/ISSILed/led_scan.c.o
                0x00000000000029e0                cliFunc_ledTest
 .text.LED_writeReg
                0x0000000000002a00       0x4a CMakeFiles/kiibohd.elf.dir/Scan/ISSILed/led_scan.c.o
                0x0000000000002a00                LED_writeReg
 *fill*         0x0000000000002a4a        0x2 
 .text.LED_setup
                0x0000000000002a4c       0xbc CMakeFiles/kiibohd.elf.dir/Scan/ISSILed/led_scan.c.o
                0x0000000000002a4c                LED_setup
 .text.cliFunc_ledStart
                0x0000000000002b08       0x34 CMakeFiles/kiibohd.elf.dir/Scan/ISSILed/led_scan.c.o
                0x0000000000002b08                cliFunc_ledStart
 .text.LED_readPage
                0x0000000000002b3c       0x98 CMakeFiles/kiibohd.elf.dir/Scan/ISSILed/led_scan.c.o
                0x0000000000002b3c                LED_readPage
 .text.cliFunc_ledRPage
                0x0000000000002bd4       0x2c CMakeFiles/kiibohd.elf.dir/Scan/ISSILed/led_scan.c.o
                0x0000000000002bd4                cliFunc_ledRPage
 .text.cliFunc_i2cSend
                0x0000000000002c00       0x88 CMakeFiles/kiibohd.elf.dir/Scan/ISSILed/led_scan.c.o
                0x0000000000002c00                cliFunc_i2cSend
 .text.cliFunc_i2cRecv
                0x0000000000002c88       0x88 CMakeFiles/kiibohd.elf.dir/Scan/ISSILed/led_scan.c.o
                0x0000000000002c88                cliFunc_i2cRecv
 .text.cliFunc_ledWPage
                0x0000000000002d10       0x9a CMakeFiles/kiibohd.elf.dir/Scan/ISSILed/led_scan.c.o
                0x0000000000002d10                cliFunc_ledWPage
 .text.LED_scan
                0x0000000000002daa        0x4 CMakeFiles/kiibohd.elf.dir/Scan/ISSILed/led_scan.c.o
                0x0000000000002daa                LED_scan
 *fill*         0x0000000000002dae        0x2 
 .text.LED_control
                0x0000000000002db0       0x94 CMakeFiles/kiibohd.elf.dir/Scan/ISSILed/led_scan.c.o
                0x0000000000002db0                LED_control
 .text.cliFunc_ledCtrl
                0x0000000000002e44       0x5c CMakeFiles/kiibohd.elf.dir/Scan/ISSILed/led_scan.c.o
                0x0000000000002e44                cliFunc_ledCtrl
 .text.LED_control_capability
                0x0000000000002ea0       0x98 CMakeFiles/kiibohd.elf.dir/Scan/ISSILed/led_scan.c.o
                0x0000000000002ea0                LED_control_capability
 .text.cliFunc_matrixState
                0x0000000000002f38       0x24 CMakeFiles/kiibohd.elf.dir/Scan/MatrixARM/matrix_scan.c.o
                0x0000000000002f38                cliFunc_matrixState
 .text.cliFunc_matrixDebug
                0x0000000000002f5c       0x5c CMakeFiles/kiibohd.elf.dir/Scan/MatrixARM/matrix_scan.c.o
                0x0000000000002f5c                cliFunc_matrixDebug
 .text.Matrix_pin
                0x0000000000002fb8       0xd0 CMakeFiles/kiibohd.elf.dir/Scan/MatrixARM/matrix_scan.c.o
                0x0000000000002fb8                Matrix_pin
 .text.Matrix_setup
                0x0000000000003088       0xe4 CMakeFiles/kiibohd.elf.dir/Scan/MatrixARM/matrix_scan.c.o
                0x0000000000003088                Matrix_setup
 .text.Matrix_keyPositionDebug
                0x000000000000316c       0x38 CMakeFiles/kiibohd.elf.dir/Scan/MatrixARM/matrix_scan.c.o
                0x000000000000316c                Matrix_keyPositionDebug
 .text.Matrix_scan
                0x00000000000031a4      0x290 CMakeFiles/kiibohd.elf.dir/Scan/MatrixARM/matrix_scan.c.o
                0x00000000000031a4                Matrix_scan
 .text.cliFunc_lcdColor
                0x0000000000003434       0x40 CMakeFiles/kiibohd.elf.dir/Scan/STLcd/lcd_scan.c.o
                0x0000000000003434                cliFunc_lcdColor
 .text.SPI_write
                0x0000000000003474       0x44 CMakeFiles/kiibohd.elf.dir/Scan/STLcd/lcd_scan.c.o
                0x0000000000003474                SPI_write
 .text.LCD_writeControlReg
                0x00000000000034b8       0x54 CMakeFiles/kiibohd.elf.dir/Scan/STLcd/lcd_scan.c.o
                0x00000000000034b8                LCD_writeControlReg
 .text.cliFunc_lcdCmd
                0x000000000000350c       0x50 CMakeFiles/kiibohd.elf.dir/Scan/STLcd/lcd_scan.c.o
                0x000000000000350c                cliFunc_lcdCmd
 .text.cliFunc_lcdDisp
                0x000000000000355c       0x76 CMakeFiles/kiibohd.elf.dir/Scan/STLcd/lcd_scan.c.o
                0x000000000000355c                cliFunc_lcdDisp
 .text.LCD_writeDisplayReg
                0x00000000000035d2       0x30 CMakeFiles/kiibohd.elf.dir/Scan/STLcd/lcd_scan.c.o
                0x00000000000035d2                LCD_writeDisplayReg
 *fill*         0x0000000000003602        0x2 
 .text.cliFunc_lcdTest
                0x0000000000003604       0x20 CMakeFiles/kiibohd.elf.dir/Scan/STLcd/lcd_scan.c.o
                0x0000000000003604                cliFunc_lcdTest
 .text.LCD_clear
                0x0000000000003624       0x68 CMakeFiles/kiibohd.elf.dir/Scan/STLcd/lcd_scan.c.o
                0x0000000000003624                LCD_clear
 .text.LCD_initialize
                0x000000000000368c       0x46 CMakeFiles/kiibohd.elf.dir/Scan/STLcd/lcd_scan.c.o
                0x000000000000368c                LCD_initialize
 .text.cliFunc_lcdInit
                0x00000000000036d2        0x4 CMakeFiles/kiibohd.elf.dir/Scan/STLcd/lcd_scan.c.o
                0x00000000000036d2                cliFunc_lcdInit
 *fill*         0x00000000000036d6        0x2 
 .text.LCD_setup
                0x00000000000036d8      0x110 CMakeFiles/kiibohd.elf.dir/Scan/STLcd/lcd_scan.c.o
                0x00000000000036d8                LCD_setup
 .text.LCD_scan
                0x00000000000037e8        0x4 CMakeFiles/kiibohd.elf.dir/Scan/STLcd/lcd_scan.c.o
                0x00000000000037e8                LCD_scan
 .text.LCD_layerStackExact_capability
                0x00000000000037ec      0x11c CMakeFiles/kiibohd.elf.dir/Scan/STLcd/lcd_scan.c.o
                0x00000000000037ec                LCD_layerStackExact_capability
 .text.LCD_layerStack_capability
                0x0000000000003908       0xbc CMakeFiles/kiibohd.elf.dir/Scan/STLcd/lcd_scan.c.o
                0x0000000000003908                LCD_layerStack_capability
 .text.Connect_receive_Animation
                0x00000000000039c4       0x10 CMakeFiles/kiibohd.elf.dir/Scan/UARTConnect/connect_scan.c.o
                0x00000000000039c4                Connect_receive_Animation
 .text.cliFunc_connectDbg
                0x00000000000039d4       0x2c CMakeFiles/kiibohd.elf.dir/Scan/UARTConnect/connect_scan.c.o
                0x00000000000039d4                cliFunc_connectDbg
 .text.Connect_receive_CableCheck
                0x0000000000003a00      0x110 CMakeFiles/kiibohd.elf.dir/Scan/UARTConnect/connect_scan.c.o
                0x0000000000003a00                Connect_receive_CableCheck
 .text.cliFunc_connectLst
                0x0000000000003b10       0x58 CMakeFiles/kiibohd.elf.dir/Scan/UARTConnect/connect_scan.c.o
                0x0000000000003b10                cliFunc_connectLst
 .text.cliFunc_connectSts
                0x0000000000003b68      0x148 CMakeFiles/kiibohd.elf.dir/Scan/UARTConnect/connect_scan.c.o
                0x0000000000003b68                cliFunc_connectSts
 .text.cliFunc_connectMst
                0x0000000000003cb0       0x70 CMakeFiles/kiibohd.elf.dir/Scan/UARTConnect/connect_scan.c.o
                0x0000000000003cb0                cliFunc_connectMst
 .text.Connect_addBytes.part.1
                0x0000000000003d20       0xc4 CMakeFiles/kiibohd.elf.dir/Scan/UARTConnect/connect_scan.c.o
 .text.Connect_receive_ScanCode
                0x0000000000003de4      0x178 CMakeFiles/kiibohd.elf.dir/Scan/UARTConnect/connect_scan.c.o
                0x0000000000003de4                Connect_receive_ScanCode
 .text.Connect_addBytes
                0x0000000000003f5c       0x20 CMakeFiles/kiibohd.elf.dir/Scan/UARTConnect/connect_scan.c.o
                0x0000000000003f5c                Connect_addBytes
 .text.Connect_receive_RemoteCapability
                0x0000000000003f7c      0x114 CMakeFiles/kiibohd.elf.dir/Scan/UARTConnect/connect_scan.c.o
                0x0000000000003f7c                Connect_receive_RemoteCapability
 .text.Connect_send_CableCheck
                0x0000000000004090       0x8c CMakeFiles/kiibohd.elf.dir/Scan/UARTConnect/connect_scan.c.o
                0x0000000000004090                Connect_send_CableCheck
 .text.Connect_send_IdRequest
                0x000000000000411c       0x40 CMakeFiles/kiibohd.elf.dir/Scan/UARTConnect/connect_scan.c.o
                0x000000000000411c                Connect_send_IdRequest
 .text.Connect_send_IdEnumeration
                0x000000000000415c       0x44 CMakeFiles/kiibohd.elf.dir/Scan/UARTConnect/connect_scan.c.o
                0x000000000000415c                Connect_send_IdEnumeration
 .text.Connect_receive_IdRequest
                0x00000000000041a0       0x38 CMakeFiles/kiibohd.elf.dir/Scan/UARTConnect/connect_scan.c.o
                0x00000000000041a0                Connect_receive_IdRequest
 .text.Connect_send_IdReport
                0x00000000000041d8       0x40 CMakeFiles/kiibohd.elf.dir/Scan/UARTConnect/connect_scan.c.o
                0x00000000000041d8                Connect_send_IdReport
 .text.Connect_receive_IdEnumeration
                0x0000000000004218       0x40 CMakeFiles/kiibohd.elf.dir/Scan/UARTConnect/connect_scan.c.o
                0x0000000000004218                Connect_receive_IdEnumeration
 .text.Connect_receive_IdReport
                0x0000000000004258       0x60 CMakeFiles/kiibohd.elf.dir/Scan/UARTConnect/connect_scan.c.o
                0x0000000000004258                Connect_receive_IdReport
 .text.Connect_send_ScanCode
                0x00000000000042b8       0x5c CMakeFiles/kiibohd.elf.dir/Scan/UARTConnect/connect_scan.c.o
                0x00000000000042b8                Connect_send_ScanCode
 .text.cliFunc_connectCmd
                0x0000000000004314       0x68 CMakeFiles/kiibohd.elf.dir/Scan/UARTConnect/connect_scan.c.o
                0x0000000000004314                cliFunc_connectCmd
 .text.Connect_send_RemoteCapability
                0x000000000000437c       0xc4 CMakeFiles/kiibohd.elf.dir/Scan/UARTConnect/connect_scan.c.o
                0x000000000000437c                Connect_send_RemoteCapability
 .text.Connect_send_Idle
                0x0000000000004440       0x68 CMakeFiles/kiibohd.elf.dir/Scan/UARTConnect/connect_scan.c.o
                0x0000000000004440                Connect_send_Idle
 .text.cliFunc_connectIdl
                0x00000000000044a8       0x38 CMakeFiles/kiibohd.elf.dir/Scan/UARTConnect/connect_scan.c.o
                0x00000000000044a8                cliFunc_connectIdl
 .text.Connect_reset
                0x00000000000044e0       0x48 CMakeFiles/kiibohd.elf.dir/Scan/UARTConnect/connect_scan.c.o
                0x00000000000044e0                Connect_reset
 .text.cliFunc_connectRst
                0x0000000000004528       0x28 CMakeFiles/kiibohd.elf.dir/Scan/UARTConnect/connect_scan.c.o
                0x0000000000004528                cliFunc_connectRst
 .text.Connect_setup
                0x0000000000004550      0x1b8 CMakeFiles/kiibohd.elf.dir/Scan/UARTConnect/connect_scan.c.o
                0x0000000000004550                Connect_setup
 .text.Connect_rx_process
                0x0000000000004708      0x1a4 CMakeFiles/kiibohd.elf.dir/Scan/UARTConnect/connect_scan.c.o
                0x0000000000004708                Connect_rx_process
 .text.Connect_scan
                0x00000000000048ac      0x1e0 CMakeFiles/kiibohd.elf.dir/Scan/UARTConnect/connect_scan.c.o
                0x00000000000048ac                Connect_scan
 .text.Scan_setup
                0x0000000000004a8c       0x28 CMakeFiles/kiibohd.elf.dir/Scan/MDErgo1/scan_loop.c.o
                0x0000000000004a8c                Scan_setup
 .text.Scan_loop
                0x0000000000004ab4       0x24 CMakeFiles/kiibohd.elf.dir/Scan/MDErgo1/scan_loop.c.o
                0x0000000000004ab4                Scan_loop
 .text.Scan_finishedWithMacro
                0x0000000000004ad8        0x2 CMakeFiles/kiibohd.elf.dir/Scan/MDErgo1/scan_loop.c.o
                0x0000000000004ad8                Scan_finishedWithMacro
 *fill*         0x0000000000004ada        0x2 
 .text.Scan_finishedWithOutput
                0x0000000000004adc        0xc CMakeFiles/kiibohd.elf.dir/Scan/MDErgo1/scan_loop.c.o
                0x0000000000004adc                Scan_finishedWithOutput
 .text.cliFunc_capList
                0x0000000000004ae8       0x58 CMakeFiles/kiibohd.elf.dir/Macro/PartialMap/macro.c.o
                0x0000000000004ae8                cliFunc_capList
 .text.cliFunc_macroStep
                0x0000000000004b40       0x28 CMakeFiles/kiibohd.elf.dir/Macro/PartialMap/macro.c.o
                0x0000000000004b40                cliFunc_macroStep
 .text.cliFunc_capSelect
                0x0000000000004b68       0xfc CMakeFiles/kiibohd.elf.dir/Macro/PartialMap/macro.c.o
                0x0000000000004b68                cliFunc_capSelect
 .text.cliFunc_layerDebug
                0x0000000000004c64       0x34 CMakeFiles/kiibohd.elf.dir/Macro/PartialMap/macro.c.o
                0x0000000000004c64                cliFunc_layerDebug
 .text.cliFunc_layerState
                0x0000000000004c98       0x70 CMakeFiles/kiibohd.elf.dir/Macro/PartialMap/macro.c.o
                0x0000000000004c98                cliFunc_layerState
 .text.cliFunc_macroDebug
                0x0000000000004d08       0x34 CMakeFiles/kiibohd.elf.dir/Macro/PartialMap/macro.c.o
                0x0000000000004d08                cliFunc_macroDebug
 .text.cliFunc_macroProc
                0x0000000000004d3c       0x34 CMakeFiles/kiibohd.elf.dir/Macro/PartialMap/macro.c.o
                0x0000000000004d3c                cliFunc_macroProc
 .text.cliFunc_layerList
                0x0000000000004d70       0x98 CMakeFiles/kiibohd.elf.dir/Macro/PartialMap/macro.c.o
                0x0000000000004d70                cliFunc_layerList
 .text.cliFunc_macroList
                0x0000000000004e08      0x15c CMakeFiles/kiibohd.elf.dir/Macro/PartialMap/macro.c.o
                0x0000000000004e08                cliFunc_macroList
 .text.Macro_layerState
                0x0000000000004f64       0xd4 CMakeFiles/kiibohd.elf.dir/Macro/PartialMap/macro.c.o
                0x0000000000004f64                Macro_layerState
 .text.Macro_layerState_capability
                0x0000000000005038       0x24 CMakeFiles/kiibohd.elf.dir/Macro/PartialMap/macro.c.o
                0x0000000000005038                Macro_layerState_capability
 .text.Macro_layerLatch_capability
                0x000000000000505c       0x24 CMakeFiles/kiibohd.elf.dir/Macro/PartialMap/macro.c.o
                0x000000000000505c                Macro_layerLatch_capability
 .text.Macro_layerLock_capability
                0x0000000000005080       0x24 CMakeFiles/kiibohd.elf.dir/Macro/PartialMap/macro.c.o
                0x0000000000005080                Macro_layerLock_capability
 .text.Macro_layerShift_capability
                0x00000000000050a4       0x24 CMakeFiles/kiibohd.elf.dir/Macro/PartialMap/macro.c.o
                0x00000000000050a4                Macro_layerShift_capability
 .text.Macro_layerRotate_capability
                0x00000000000050c8       0x78 CMakeFiles/kiibohd.elf.dir/Macro/PartialMap/macro.c.o
                0x00000000000050c8                Macro_layerRotate_capability
 .text.Macro_layerLookup
                0x0000000000005140      0x128 CMakeFiles/kiibohd.elf.dir/Macro/PartialMap/macro.c.o
                0x0000000000005140                Macro_layerLookup
 .text.Macro_interconnectAdd
                0x0000000000005268       0xb4 CMakeFiles/kiibohd.elf.dir/Macro/PartialMap/macro.c.o
                0x0000000000005268                Macro_interconnectAdd
 .text.Macro_keyState
                0x000000000000531c       0x60 CMakeFiles/kiibohd.elf.dir/Macro/PartialMap/macro.c.o
                0x000000000000531c                Macro_keyState
 .text.cliFunc_keyHold
                0x000000000000537c       0x2e CMakeFiles/kiibohd.elf.dir/Macro/PartialMap/macro.c.o
                0x000000000000537c                cliFunc_keyHold
 .text.cliFunc_keyPress
                0x00000000000053aa       0x2e CMakeFiles/kiibohd.elf.dir/Macro/PartialMap/macro.c.o
                0x00000000000053aa                cliFunc_keyPress
 .text.cliFunc_keyRelease
                0x00000000000053d8       0x2e CMakeFiles/kiibohd.elf.dir/Macro/PartialMap/macro.c.o
                0x00000000000053d8                cliFunc_keyRelease
 *fill*         0x0000000000005406        0x2 
 .text.Macro_evalTriggerMacro
                0x0000000000005408      0x240 CMakeFiles/kiibohd.elf.dir/Macro/PartialMap/macro.c.o
                0x0000000000005408                Macro_evalTriggerMacro
 .text.Macro_process
                0x0000000000005648      0x3c4 CMakeFiles/kiibohd.elf.dir/Macro/PartialMap/macro.c.o
                0x0000000000005648                Macro_process
 .text.Macro_setup
                0x0000000000005a0c       0x70 CMakeFiles/kiibohd.elf.dir/Macro/PartialMap/macro.c.o
                0x0000000000005a0c                Macro_setup
 .text.macroDebugShowTrigger
                0x0000000000005a7c      0x114 CMakeFiles/kiibohd.elf.dir/Macro/PartialMap/macro.c.o
                0x0000000000005a7c                macroDebugShowTrigger
 .text.macroDebugShowResult
                0x0000000000005b90      0x178 CMakeFiles/kiibohd.elf.dir/Macro/PartialMap/macro.c.o
                0x0000000000005b90                macroDebugShowResult
 .text.cliFunc_macroShow
                0x0000000000005d08       0x3e CMakeFiles/kiibohd.elf.dir/Macro/PartialMap/macro.c.o
                0x0000000000005d08                cliFunc_macroShow
 *fill*         0x0000000000005d46        0x2 
 .text.cliFunc_sendKeys
                0x0000000000005d48       0x24 CMakeFiles/kiibohd.elf.dir/Output/pjrcUSB/output_com.c.o
                0x0000000000005d48                cliFunc_sendKeys
 .text.cliFunc_kbdProtocol
                0x0000000000005d6c       0x28 CMakeFiles/kiibohd.elf.dir/Output/pjrcUSB/output_com.c.o
                0x0000000000005d6c                cliFunc_kbdProtocol
 .text.cliFunc_readLEDs
                0x0000000000005d94       0x28 CMakeFiles/kiibohd.elf.dir/Output/pjrcUSB/output_com.c.o
                0x0000000000005d94                cliFunc_readLEDs
 .text.cliFunc_setKeys
                0x0000000000005dbc       0x34 CMakeFiles/kiibohd.elf.dir/Output/pjrcUSB/output_com.c.o
                0x0000000000005dbc                cliFunc_setKeys
 .text.cliFunc_outputDebug
                0x0000000000005df0       0x24 CMakeFiles/kiibohd.elf.dir/Output/pjrcUSB/output_com.c.o
                0x0000000000005df0                cliFunc_outputDebug
 .text.cliFunc_setMod
                0x0000000000005e14       0x20 CMakeFiles/kiibohd.elf.dir/Output/pjrcUSB/output_com.c.o
                0x0000000000005e14                cliFunc_setMod
 .text.Output_consCtrlSend_capability
                0x0000000000005e34       0x58 CMakeFiles/kiibohd.elf.dir/Output/pjrcUSB/output_com.c.o
                0x0000000000005e34                Output_consCtrlSend_capability
 .text.Output_noneSend_capability
                0x0000000000005e8c       0x14 CMakeFiles/kiibohd.elf.dir/Output/pjrcUSB/output_com.c.o
                0x0000000000005e8c                Output_noneSend_capability
 .text.Output_sysCtrlSend_capability
                0x0000000000005ea0       0x58 CMakeFiles/kiibohd.elf.dir/Output/pjrcUSB/output_com.c.o
                0x0000000000005ea0                Output_sysCtrlSend_capability
 .text.Output_flashMode_capability
                0x0000000000005ef8       0x18 CMakeFiles/kiibohd.elf.dir/Output/pjrcUSB/output_com.c.o
                0x0000000000005ef8                Output_flashMode_capability
 .text.Output_flushBuffers
                0x0000000000005f10       0x2c CMakeFiles/kiibohd.elf.dir/Output/pjrcUSB/output_com.c.o
                0x0000000000005f10                Output_flushBuffers
 .text.Output_kbdProtocolBoot_capability
                0x0000000000005f3c       0x30 CMakeFiles/kiibohd.elf.dir/Output/pjrcUSB/output_com.c.o
                0x0000000000005f3c                Output_kbdProtocolBoot_capability
 .text.Output_kbdProtocolNKRO_capability
                0x0000000000005f6c       0x34 CMakeFiles/kiibohd.elf.dir/Output/pjrcUSB/output_com.c.o
                0x0000000000005f6c                Output_kbdProtocolNKRO_capability
 .text.Output_usbCodeSend_capability
                0x0000000000005fa0      0x1e0 CMakeFiles/kiibohd.elf.dir/Output/pjrcUSB/output_com.c.o
                0x0000000000005fa0                Output_usbCodeSend_capability
 .text.Output_setup
                0x0000000000006180       0x20 CMakeFiles/kiibohd.elf.dir/Output/pjrcUSB/output_com.c.o
                0x0000000000006180                Output_setup
 .text.Output_send
                0x00000000000061a0       0x60 CMakeFiles/kiibohd.elf.dir/Output/pjrcUSB/output_com.c.o
                0x00000000000061a0                Output_send
 .text.Output_availablechar
                0x0000000000006200        0x4 CMakeFiles/kiibohd.elf.dir/Output/pjrcUSB/output_com.c.o
                0x0000000000006200                Output_availablechar
 .text.Output_getchar
                0x0000000000006204        0x4 CMakeFiles/kiibohd.elf.dir/Output/pjrcUSB/output_com.c.o
                0x0000000000006204                Output_getchar
 .text.Output_putstr
                0x0000000000006208        0xe CMakeFiles/kiibohd.elf.dir/Output/pjrcUSB/output_com.c.o
                0x0000000000006208                Output_putstr
 *fill*         0x0000000000006216        0x2 
 .text.Output_softReset
                0x0000000000006218       0x10 CMakeFiles/kiibohd.elf.dir/Output/pjrcUSB/output_com.c.o
                0x0000000000006218                Output_softReset
 .text.endpoint0_transmit
                0x0000000000006228       0x40 CMakeFiles/kiibohd.elf.dir/Output/pjrcUSB/arm/usb_dev.c.o
 .text.usb_rx   0x0000000000006268       0x38 CMakeFiles/kiibohd.elf.dir/Output/pjrcUSB/arm/usb_dev.c.o
                0x0000000000006268                usb_rx
 .text.usb_tx_packet_count
                0x00000000000062a0       0x24 CMakeFiles/kiibohd.elf.dir/Output/pjrcUSB/arm/usb_dev.c.o
                0x00000000000062a0                usb_tx_packet_count
 .text.usb_rx_memory
                0x00000000000062c4       0x78 CMakeFiles/kiibohd.elf.dir/Output/pjrcUSB/arm/usb_dev.c.o
                0x00000000000062c4                usb_rx_memory
 .text.usb_tx   0x000000000000633c       0x80 CMakeFiles/kiibohd.elf.dir/Output/pjrcUSB/arm/usb_dev.c.o
                0x000000000000633c                usb_tx
 .text.usb_device_reload
                0x00000000000063bc       0x2c CMakeFiles/kiibohd.elf.dir/Output/pjrcUSB/arm/usb_dev.c.o
                0x00000000000063bc                usb_device_reload
 .text.usb_isr  0x00000000000063e8      0x710 CMakeFiles/kiibohd.elf.dir/Output/pjrcUSB/arm/usb_dev.c.o
                0x00000000000063e8                usb_isr
 .text.usb_init
                0x0000000000006af8       0x9c CMakeFiles/kiibohd.elf.dir/Output/pjrcUSB/arm/usb_dev.c.o
                0x0000000000006af8                usb_init
 .text.usb_keyboard_send
                0x0000000000006b94      0x2c4 CMakeFiles/kiibohd.elf.dir/Output/pjrcUSB/arm/usb_keyboard.c.o
                0x0000000000006b94                usb_keyboard_send
 .text.usb_malloc
                0x0000000000006e58       0x3c CMakeFiles/kiibohd.elf.dir/Output/pjrcUSB/arm/usb_mem.c.o
                0x0000000000006e58                usb_malloc
 .text.usb_free
                0x0000000000006e94       0x44 CMakeFiles/kiibohd.elf.dir/Output/pjrcUSB/arm/usb_mem.c.o
                0x0000000000006e94                usb_free
 .text.usb_serial_getchar
                0x0000000000006ed8       0x4c CMakeFiles/kiibohd.elf.dir/Output/pjrcUSB/arm/usb_serial.c.o
                0x0000000000006ed8                usb_serial_getchar
 .text.usb_serial_available
                0x0000000000006f24       0x1c CMakeFiles/kiibohd.elf.dir/Output/pjrcUSB/arm/usb_serial.c.o
                0x0000000000006f24                usb_serial_available
 .text.usb_serial_write
                0x0000000000006f40       0xd0 CMakeFiles/kiibohd.elf.dir/Output/pjrcUSB/arm/usb_serial.c.o
                0x0000000000006f40                usb_serial_write
 .text.usb_serial_flush_callback
                0x0000000000007010       0x48 CMakeFiles/kiibohd.elf.dir/Output/pjrcUSB/arm/usb_serial.c.o
                0x0000000000007010                usb_serial_flush_callback
 .text.cliFunc_clear
                0x0000000000007058        0xc CMakeFiles/kiibohd.elf.dir/Debug/cli/cli.c.o
                0x0000000000007058                cliFunc_clear
 .text.cliFunc_reload
                0x0000000000007064       0x24 CMakeFiles/kiibohd.elf.dir/Debug/cli/cli.c.o
                0x0000000000007064                cliFunc_reload
 .text.cliFunc_reset
                0x0000000000007088        0xc CMakeFiles/kiibohd.elf.dir/Debug/cli/cli.c.o
                0x0000000000007088                cliFunc_reset
 .text.cliFunc_help
                0x0000000000007094       0xb4 CMakeFiles/kiibohd.elf.dir/Debug/cli/cli.c.o
                0x0000000000007094                cliFunc_help
 .text.cliFunc_led
                0x0000000000007148       0x14 CMakeFiles/kiibohd.elf.dir/Debug/cli/cli.c.o
                0x0000000000007148                cliFunc_led
 .text.cliFunc_restart
                0x000000000000715c        0x4 CMakeFiles/kiibohd.elf.dir/Debug/cli/cli.c.o
                0x000000000000715c                cliFunc_restart
 .text.cliFunc_version
                0x0000000000007160       0xd4 CMakeFiles/kiibohd.elf.dir/Debug/cli/cli.c.o
                0x0000000000007160                cliFunc_version
 .text.cliFunc_cliDebug
                0x0000000000007234       0x38 CMakeFiles/kiibohd.elf.dir/Debug/cli/cli.c.o
                0x0000000000007234                cliFunc_cliDebug
 .text.CLI_saveHistory.part.1
                0x000000000000726c       0x34 CMakeFiles/kiibohd.elf.dir/Debug/cli/cli.c.o
 .text.CLI_argumentIsolation
                0x00000000000072a0       0x22 CMakeFiles/kiibohd.elf.dir/Debug/cli/cli.c.o
                0x00000000000072a0                CLI_argumentIsolation
 *fill*         0x00000000000072c2        0x2 
 .text.CLI_commandLookup
                0x00000000000072c4       0xc4 CMakeFiles/kiibohd.elf.dir/Debug/cli/cli.c.o
                0x00000000000072c4                CLI_commandLookup
 .text.CLI_registerDictionary
                0x0000000000007388       0x38 CMakeFiles/kiibohd.elf.dir/Debug/cli/cli.c.o
                0x0000000000007388                CLI_registerDictionary
 .text.CLI_init
                0x00000000000073c0       0x68 CMakeFiles/kiibohd.elf.dir/Debug/cli/cli.c.o
                0x00000000000073c0                CLI_init
 .text.CLI_tabCompletion
                0x0000000000007428       0xc0 CMakeFiles/kiibohd.elf.dir/Debug/cli/cli.c.o
                0x0000000000007428                CLI_tabCompletion
 .text.CLI_wrap
                0x00000000000074e8       0x24 CMakeFiles/kiibohd.elf.dir/Debug/cli/cli.c.o
                0x00000000000074e8                CLI_wrap
 .text.CLI_saveHistory
                0x000000000000750c       0x2c CMakeFiles/kiibohd.elf.dir/Debug/cli/cli.c.o
                0x000000000000750c                CLI_saveHistory
 .text.CLI_retreiveHistory
                0x0000000000007538       0x4c CMakeFiles/kiibohd.elf.dir/Debug/cli/cli.c.o
                0x0000000000007538                CLI_retreiveHistory
 .text.CLI_process
                0x0000000000007584      0x214 CMakeFiles/kiibohd.elf.dir/Debug/cli/cli.c.o
                0x0000000000007584                CLI_process
 .text.init_errorLED
                0x0000000000007798       0x1c CMakeFiles/kiibohd.elf.dir/Debug/led/led.c.o
                0x0000000000007798                init_errorLED
 .text.errorLED
                0x00000000000077b4       0x1c CMakeFiles/kiibohd.elf.dir/Debug/led/led.c.o
                0x00000000000077b4                errorLED
 .text.printstrs
                0x00000000000077d0       0x34 CMakeFiles/kiibohd.elf.dir/Debug/print/print.c.o
                0x00000000000077d0                printstrs
 .text._print   0x0000000000007804        0x4 CMakeFiles/kiibohd.elf.dir/Debug/print/print.c.o
                0x0000000000007804                _print
 .text.lenStr   0x0000000000007808       0x12 CMakeFiles/kiibohd.elf.dir/Debug/print/print.c.o
                0x0000000000007808                lenStr
 .text.revsStr  0x000000000000781a       0x20 CMakeFiles/kiibohd.elf.dir/Debug/print/print.c.o
                0x000000000000781a                revsStr
 .text.int8ToStr
                0x000000000000783a       0x2e CMakeFiles/kiibohd.elf.dir/Debug/print/print.c.o
                0x000000000000783a                int8ToStr
 .text.printInt8
                0x0000000000007868       0x14 CMakeFiles/kiibohd.elf.dir/Debug/print/print.c.o
                0x0000000000007868                printInt8
 .text.int16ToStr
                0x000000000000787c       0x2c CMakeFiles/kiibohd.elf.dir/Debug/print/print.c.o
                0x000000000000787c                int16ToStr
 .text.printInt16
                0x00000000000078a8       0x14 CMakeFiles/kiibohd.elf.dir/Debug/print/print.c.o
                0x00000000000078a8                printInt16
 .text.hexToStr_op
                0x00000000000078bc       0x5a CMakeFiles/kiibohd.elf.dir/Debug/print/print.c.o
                0x00000000000078bc                hexToStr_op
 .text.printHex_op
                0x0000000000007916       0x16 CMakeFiles/kiibohd.elf.dir/Debug/print/print.c.o
                0x0000000000007916                printHex_op
 .text.hex32ToStr_op
                0x000000000000792c       0x54 CMakeFiles/kiibohd.elf.dir/Debug/print/print.c.o
                0x000000000000792c                hex32ToStr_op
 .text.printHex32_op
                0x0000000000007980       0x16 CMakeFiles/kiibohd.elf.dir/Debug/print/print.c.o
                0x0000000000007980                printHex32_op
 .text.eqStr    0x0000000000007996       0x2a CMakeFiles/kiibohd.elf.dir/Debug/print/print.c.o
                0x0000000000007996                eqStr
 .text.numToInt
                0x00000000000079c0       0x8a CMakeFiles/kiibohd.elf.dir/Debug/print/print.c.o
                0x00000000000079c0                numToInt
 *(.rodata*)
 .rodata.str1.1
                0x0000000000007a4a       0x85 CMakeFiles/kiibohd.elf.dir/Lib/mk20dx.c.o
                                         0x91 (size before relaxing)
 .rodata.sys_reset_to_loader_magic
                0x0000000000007acf       0x16 CMakeFiles/kiibohd.elf.dir/Lib/mk20dx.c.o
                0x0000000000007acf                sys_reset_to_loader_magic
 .rodata        0x0000000000007ae5        0x3 CMakeFiles/kiibohd.elf.dir/Scan/ISSILed/led_scan.c.o
 .rodata.ledWPageCLIDict_DescEntry
                0x0000000000007ae8       0x4a CMakeFiles/kiibohd.elf.dir/Scan/ISSILed/led_scan.c.o
                0x0000000000007ae8                ledWPageCLIDict_DescEntry
 .rodata.ledTestCLIDict_DescEntry
                0x0000000000007b32       0x18 CMakeFiles/kiibohd.elf.dir/Scan/ISSILed/led_scan.c.o
                0x0000000000007b32                ledTestCLIDict_DescEntry
 *fill*         0x0000000000007b4a        0x2 
 .rodata.ledCLIDict
                0x0000000000007b4c       0x6c CMakeFiles/kiibohd.elf.dir/Scan/ISSILed/led_scan.c.o
                0x0000000000007b4c                ledCLIDict
 .rodata.ledRPageCLIDict_DescEntry
                0x0000000000007bb8       0x1e CMakeFiles/kiibohd.elf.dir/Scan/ISSILed/led_scan.c.o
                0x0000000000007bb8                ledRPageCLIDict_DescEntry
 .rodata.ledStartCLIDict_DescEntry
                0x0000000000007bd6       0x1b CMakeFiles/kiibohd.elf.dir/Scan/ISSILed/led_scan.c.o
                0x0000000000007bd6                ledStartCLIDict_DescEntry
 .rodata.str1.1
                0x0000000000007bf1      0x1ef CMakeFiles/kiibohd.elf.dir/Scan/ISSILed/led_scan.c.o
                                        0x1f4 (size before relaxing)
 .rodata.ledCtrlCLIDict_DescEntry
                0x0000000000007de0       0x33 CMakeFiles/kiibohd.elf.dir/Scan/ISSILed/led_scan.c.o
                0x0000000000007de0                ledCtrlCLIDict_DescEntry
 .rodata.LED_defaultBrightness1
                0x0000000000007e13       0x92 CMakeFiles/kiibohd.elf.dir/Scan/ISSILed/led_scan.c.o
                0x0000000000007e13                LED_defaultBrightness1
 .rodata.ledZeroCLIDict_DescEntry
                0x0000000000007ea5       0x31 CMakeFiles/kiibohd.elf.dir/Scan/ISSILed/led_scan.c.o
                0x0000000000007ea5                ledZeroCLIDict_DescEntry
 .rodata.i2cRecvCLIDict_DescEntry
                0x0000000000007ed6       0x79 CMakeFiles/kiibohd.elf.dir/Scan/ISSILed/led_scan.c.o
                0x0000000000007ed6                i2cRecvCLIDict_DescEntry
 .rodata.i2cSendCLIDict_DescEntry
                0x0000000000007f4f       0x44 CMakeFiles/kiibohd.elf.dir/Scan/ISSILed/led_scan.c.o
                0x0000000000007f4f                i2cSendCLIDict_DescEntry
 .rodata.LED_ledEnableMask1
                0x0000000000007f93       0x14 CMakeFiles/kiibohd.elf.dir/Scan/ISSILed/led_scan.c.o
                0x0000000000007f93                LED_ledEnableMask1
 .rodata.ledCLIDictName
                0x0000000000007fa7       0x19 CMakeFiles/kiibohd.elf.dir/Scan/ISSILed/led_scan.c.o
                0x0000000000007fa7                ledCLIDictName
 .rodata.matrixDebugCLIDict_DescEntry
                0x0000000000007fc0       0x86 CMakeFiles/kiibohd.elf.dir/Scan/MatrixARM/matrix_scan.c.o
                0x0000000000007fc0                matrixDebugCLIDict_DescEntry
 .rodata.str1.1
                0x0000000000008046      0x1c3 CMakeFiles/kiibohd.elf.dir/Scan/MatrixARM/matrix_scan.c.o
                                        0x1cd (size before relaxing)
 .rodata.matrixStateCLIDict_DescEntry
                0x0000000000008209       0x9a CMakeFiles/kiibohd.elf.dir/Scan/MatrixARM/matrix_scan.c.o
                0x0000000000008209                matrixStateCLIDict_DescEntry
 .rodata.matrixCLIDictName
                0x00000000000082a3       0x17 CMakeFiles/kiibohd.elf.dir/Scan/MatrixARM/matrix_scan.c.o
                0x00000000000082a3                matrixCLIDictName
 *fill*         0x00000000000082ba        0x2 
 .rodata.matrixCLIDict
                0x00000000000082bc       0x24 CMakeFiles/kiibohd.elf.dir/Scan/MatrixARM/matrix_scan.c.o
                0x00000000000082bc                matrixCLIDict
 .rodata        0x00000000000082e0      0x53c CMakeFiles/kiibohd.elf.dir/Scan/STLcd/lcd_scan.c.o
 .rodata.lcdTestCLIDict_DescEntry
                0x000000000000881c       0x1a CMakeFiles/kiibohd.elf.dir/Scan/STLcd/lcd_scan.c.o
                0x000000000000881c                lcdTestCLIDict_DescEntry
 .rodata.lcdCLIDictName
                0x0000000000008836       0x17 CMakeFiles/kiibohd.elf.dir/Scan/STLcd/lcd_scan.c.o
                0x0000000000008836                lcdCLIDictName
 *fill*         0x000000000000884d        0x3 
 .rodata.lcdCLIDict
                0x0000000000008850       0x48 CMakeFiles/kiibohd.elf.dir/Scan/STLcd/lcd_scan.c.o
                0x0000000000008850                lcdCLIDict
 .rodata.str1.1
                0x0000000000008898       0xa1 CMakeFiles/kiibohd.elf.dir/Scan/STLcd/lcd_scan.c.o
                                         0xa4 (size before relaxing)
 .rodata.lcdCmdCLIDict_DescEntry
                0x0000000000008939       0x44 CMakeFiles/kiibohd.elf.dir/Scan/STLcd/lcd_scan.c.o
                0x0000000000008939                lcdCmdCLIDict_DescEntry
 .rodata.STLcdDefaultImage
                0x000000000000897d      0x200 CMakeFiles/kiibohd.elf.dir/Scan/STLcd/lcd_scan.c.o
                0x000000000000897d                STLcdDefaultImage
 .rodata.lcdColorCLIDict_DescEntry
                0x0000000000008b7d       0x45 CMakeFiles/kiibohd.elf.dir/Scan/STLcd/lcd_scan.c.o
                0x0000000000008b7d                lcdColorCLIDict_DescEntry
 .rodata.lcdDispCLIDict_DescEntry
                0x0000000000008bc2       0x4e CMakeFiles/kiibohd.elf.dir/Scan/STLcd/lcd_scan.c.o
                0x0000000000008bc2                lcdDispCLIDict_DescEntry
 .rodata.lcdInitCLIDict_DescEntry
                0x0000000000008c10       0x1f CMakeFiles/kiibohd.elf.dir/Scan/STLcd/lcd_scan.c.o
                0x0000000000008c10                lcdInitCLIDict_DescEntry
 *fill*         0x0000000000008c2f        0x1 
 .rodata        0x0000000000008c30       0x30 CMakeFiles/kiibohd.elf.dir/Scan/UARTConnect/connect_scan.c.o
 .rodata.uartConnectCLIDict
                0x0000000000008c60       0x60 CMakeFiles/kiibohd.elf.dir/Scan/UARTConnect/connect_scan.c.o
                0x0000000000008c60                uartConnectCLIDict
 .rodata.connectDbgCLIDict_DescEntry
                0x0000000000008cc0       0x1f CMakeFiles/kiibohd.elf.dir/Scan/UARTConnect/connect_scan.c.o
                0x0000000000008cc0                connectDbgCLIDict_DescEntry
 .rodata.connectStsCLIDict_DescEntry
                0x0000000000008cdf       0x14 CMakeFiles/kiibohd.elf.dir/Scan/UARTConnect/connect_scan.c.o
                0x0000000000008cdf                connectStsCLIDict_DescEntry
 .rodata.str1.1
                0x0000000000008cf3      0x5a6 CMakeFiles/kiibohd.elf.dir/Scan/UARTConnect/connect_scan.c.o
                                        0x5af (size before relaxing)
 .rodata.connectLstCLIDict_DescEntry
                0x0000000000009299       0x32 CMakeFiles/kiibohd.elf.dir/Scan/UARTConnect/connect_scan.c.o
                0x0000000000009299                connectLstCLIDict_DescEntry
 .rodata.uartConnectCLIDictName
                0x00000000000092cb       0x1c CMakeFiles/kiibohd.elf.dir/Scan/UARTConnect/connect_scan.c.o
                0x00000000000092cb                uartConnectCLIDictName
 .rodata.connectMstCLIDict_DescEntry
                0x00000000000092e7       0x3e CMakeFiles/kiibohd.elf.dir/Scan/UARTConnect/connect_scan.c.o
                0x00000000000092e7                connectMstCLIDict_DescEntry
 .rodata.connectRstCLIDict_DescEntry
                0x0000000000009325       0x3b CMakeFiles/kiibohd.elf.dir/Scan/UARTConnect/connect_scan.c.o
                0x0000000000009325                connectRstCLIDict_DescEntry
 .rodata.connectCmdCLIDict_DescEntry
                0x0000000000009360       0x6c CMakeFiles/kiibohd.elf.dir/Scan/UARTConnect/connect_scan.c.o
                0x0000000000009360                connectCmdCLIDict_DescEntry
 .rodata.connectIdlCLIDict_DescEntry
                0x00000000000093cc       0x61 CMakeFiles/kiibohd.elf.dir/Scan/UARTConnect/connect_scan.c.o
                0x00000000000093cc                connectIdlCLIDict_DescEntry
 .rodata.tm136_guide
                0x000000000000942d        0x5 CMakeFiles/kiibohd.elf.dir/Macro/PartialMap/macro.c.o
                0x000000000000942d                tm136_guide
 *fill*         0x0000000000009432        0x2 
 .rodata.default_tl_0x2C
                0x0000000000009434        0x8 CMakeFiles/kiibohd.elf.dir/Macro/PartialMap/macro.c.o
                0x0000000000009434                default_tl_0x2C
 .rodata.default_tl_0x2D
                0x000000000000943c        0x4 CMakeFiles/kiibohd.elf.dir/Macro/PartialMap/macro.c.o
                0x000000000000943c                default_tl_0x2D
 .rodata.default_tl_0x2E
                0x0000000000009440        0x4 CMakeFiles/kiibohd.elf.dir/Macro/PartialMap/macro.c.o
                0x0000000000009440                default_tl_0x2E
 .rodata.str1.1
                0x0000000000009444      0x6df CMakeFiles/kiibohd.elf.dir/Macro/PartialMap/macro.c.o
                                        0x709 (size before relaxing)
 .rodata.rm102_guide
                0x0000000000009b23        0x4 CMakeFiles/kiibohd.elf.dir/Macro/PartialMap/macro.c.o
                0x0000000000009b23                rm102_guide
 .rodata.tm24_guide
                0x0000000000009b27        0x5 CMakeFiles/kiibohd.elf.dir/Macro/PartialMap/macro.c.o
                0x0000000000009b27                tm24_guide
 .rodata.rm40_guide
                0x0000000000009b2c        0x4 CMakeFiles/kiibohd.elf.dir/Macro/PartialMap/macro.c.o
                0x0000000000009b2c                rm40_guide
 .rodata.tm0_guide
                0x0000000000009b30        0x5 CMakeFiles/kiibohd.elf.dir/Macro/PartialMap/macro.c.o
                0x0000000000009b30                tm0_guide
 .rodata.tm18_guide
                0x0000000000009b35        0x5 CMakeFiles/kiibohd.elf.dir/Macro/PartialMap/macro.c.o
                0x0000000000009b35                tm18_guide
 .rodata.rm93_guide
                0x0000000000009b3a        0x6 CMakeFiles/kiibohd.elf.dir/Macro/PartialMap/macro.c.o
                0x0000000000009b3a                rm93_guide
 .rodata.default_tl_0x44
                0x0000000000009b40        0x8 CMakeFiles/kiibohd.elf.dir/Macro/PartialMap/macro.c.o
                0x0000000000009b40                default_tl_0x44
 .rodata.default_tl_0x45
                0x0000000000009b48        0x8 CMakeFiles/kiibohd.elf.dir/Macro/PartialMap/macro.c.o
                0x0000000000009b48                default_tl_0x45
 .rodata.rm87_guide
                0x0000000000009b50        0x4 CMakeFiles/kiibohd.elf.dir/Macro/PartialMap/macro.c.o
                0x0000000000009b50                rm87_guide
 .rodata.default_tl_0x47
                0x0000000000009b54        0x8 CMakeFiles/kiibohd.elf.dir/Macro/PartialMap/macro.c.o
                0x0000000000009b54                default_tl_0x47
 .rodata.macroCLIDictName
                0x0000000000009b5c       0x16 CMakeFiles/kiibohd.elf.dir/Macro/PartialMap/macro.c.o
                0x0000000000009b5c                macroCLIDictName
 .rodata.tm41_guide
                0x0000000000009b72        0x5 CMakeFiles/kiibohd.elf.dir/Macro/PartialMap/macro.c.o
                0x0000000000009b72                tm41_guide
 .rodata.tm93_guide
                0x0000000000009b77        0x5 CMakeFiles/kiibohd.elf.dir/Macro/PartialMap/macro.c.o
                0x0000000000009b77                tm93_guide
 .rodata.keyReleaseCLIDict_DescEntry
                0x0000000000009b7c       0x6b CMakeFiles/kiibohd.elf.dir/Macro/PartialMap/macro.c.o
                0x0000000000009b7c                keyReleaseCLIDict_DescEntry
 .rodata.tm65_guide
                0x0000000000009be7        0x5 CMakeFiles/kiibohd.elf.dir/Macro/PartialMap/macro.c.o
                0x0000000000009be7                tm65_guide
 .rodata.tm2_guide
                0x0000000000009bec        0x5 CMakeFiles/kiibohd.elf.dir/Macro/PartialMap/macro.c.o
                0x0000000000009bec                tm2_guide
 .rodata.tm37_guide
                0x0000000000009bf1        0x5 CMakeFiles/kiibohd.elf.dir/Macro/PartialMap/macro.c.o
                0x0000000000009bf1                tm37_guide
 *fill*         0x0000000000009bf6        0x2 
 .rodata.default_tl_0x30
                0x0000000000009bf8        0x8 CMakeFiles/kiibohd.elf.dir/Macro/PartialMap/macro.c.o
                0x0000000000009bf8                default_tl_0x30
 .rodata.default_tl_0x31
                0x0000000000009c00        0x8 CMakeFiles/kiibohd.elf.dir/Macro/PartialMap/macro.c.o
                0x0000000000009c00                default_tl_0x31
 .rodata.default_tl_0x32
                0x0000000000009c08        0x8 CMakeFiles/kiibohd.elf.dir/Macro/PartialMap/macro.c.o
                0x0000000000009c08                default_tl_0x32
 .rodata.default_tl_0x33
                0x0000000000009c10        0x8 CMakeFiles/kiibohd.elf.dir/Macro/PartialMap/macro.c.o
                0x0000000000009c10                default_tl_0x33
 .rodata.default_tl_0x34
                0x0000000000009c18        0x8 CMakeFiles/kiibohd.elf.dir/Macro/PartialMap/macro.c.o
                0x0000000000009c18                default_tl_0x34
 .rodata.default_tl_0x35
                0x0000000000009c20        0x8 CMakeFiles/kiibohd.elf.dir/Macro/PartialMap/macro.c.o
                0x0000000000009c20                default_tl_0x35
 .rodata.default_tl_0x36
                0x0000000000009c28        0x4 CMakeFiles/kiibohd.elf.dir/Macro/PartialMap/macro.c.o
                0x0000000000009c28                default_tl_0x36
 .rodata.default_tl_0x37
                0x0000000000009c2c        0x4 CMakeFiles/kiibohd.elf.dir/Macro/PartialMap/macro.c.o
                0x0000000000009c2c                default_tl_0x37
 .rodata.default_tl_0x38
                0x0000000000009c30        0x8 CMakeFiles/kiibohd.elf.dir/Macro/PartialMap/macro.c.o
                0x0000000000009c30                default_tl_0x38
 .rodata.default_tl_0x39
                0x0000000000009c38        0x8 CMakeFiles/kiibohd.elf.dir/Macro/PartialMap/macro.c.o
                0x0000000000009c38                default_tl_0x39
 .rodata.tm72_guide
                0x0000000000009c40        0x5 CMakeFiles/kiibohd.elf.dir/Macro/PartialMap/macro.c.o
                0x0000000000009c40                tm72_guide
 .rodata.tm125_guide
                0x0000000000009c45        0x5 CMakeFiles/kiibohd.elf.dir/Macro/PartialMap/macro.c.o
                0x0000000000009c45                tm125_guide
 .rodata.rm54_guide
                0x0000000000009c4a        0x4 CMakeFiles/kiibohd.elf.dir/Macro/PartialMap/macro.c.o
                0x0000000000009c4a                rm54_guide
 *fill*         0x0000000000009c4e        0x2 
 .rodata.default_tl_0x3A
                0x0000000000009c50        0x8 CMakeFiles/kiibohd.elf.dir/Macro/PartialMap/macro.c.o
                0x0000000000009c50                default_tl_0x3A
 .rodata.default_tl_0x3B
                0x0000000000009c58        0x8 CMakeFiles/kiibohd.elf.dir/Macro/PartialMap/macro.c.o
                0x0000000000009c58                default_tl_0x3B
 .rodata.default_tl_0x3C
                0x0000000000009c60        0x8 CMakeFiles/kiibohd.elf.dir/Macro/PartialMap/macro.c.o
                0x0000000000009c60                default_tl_0x3C
 .rodata.default_tl_0x3D
                0x0000000000009c68        0x8 CMakeFiles/kiibohd.elf.dir/Macro/PartialMap/macro.c.o
                0x0000000000009c68                default_tl_0x3D
 .rodata.default_tl_0x3E
                0x0000000000009c70        0x8 CMakeFiles/kiibohd.elf.dir/Macro/PartialMap/macro.c.o
                0x0000000000009c70                default_tl_0x3E
 .rodata.default_tl_0x3F
                0x0000000000009c78        0x4 CMakeFiles/kiibohd.elf.dir/Macro/PartialMap/macro.c.o
                0x0000000000009c78                default_tl_0x3F
 .rodata.rm109_guide
                0x0000000000009c7c        0x4 CMakeFiles/kiibohd.elf.dir/Macro/PartialMap/macro.c.o
                0x0000000000009c7c                rm109_guide
 .rodata.rm81_guide
                0x0000000000009c80        0x6 CMakeFiles/kiibohd.elf.dir/Macro/PartialMap/macro.c.o
                0x0000000000009c80                rm81_guide
 .rodata.macroStepCLIDict_DescEntry
                0x0000000000009c86       0x2c CMakeFiles/kiibohd.elf.dir/Macro/PartialMap/macro.c.o
                0x0000000000009c86                macroStepCLIDict_DescEntry
 .rodata.rm53_guide
                0x0000000000009cb2        0x4 CMakeFiles/kiibohd.elf.dir/Macro/PartialMap/macro.c.o
                0x0000000000009cb2                rm53_guide
 .rodata.rm25_guide
                0x0000000000009cb6        0x4 CMakeFiles/kiibohd.elf.dir/Macro/PartialMap/macro.c.o
                0x0000000000009cb6                rm25_guide
 .rodata.rm21_guide
                0x0000000000009cba        0x4 CMakeFiles/kiibohd.elf.dir/Macro/PartialMap/macro.c.o
                0x0000000000009cba                rm21_guide
 .rodata.capSelectCLIDict_DescEntry
                0x0000000000009cbe       0x76 CMakeFiles/kiibohd.elf.dir/Macro/PartialMap/macro.c.o
                0x0000000000009cbe                capSelectCLIDict_DescEntry
 .rodata.rm77_guide
                0x0000000000009d34        0x4 CMakeFiles/kiibohd.elf.dir/Macro/PartialMap/macro.c.o
                0x0000000000009d34                rm77_guide
 .rodata.InterconnectOffsetList
                0x0000000000009d38        0x2 CMakeFiles/kiibohd.elf.dir/Macro/PartialMap/macro.c.o
                0x0000000000009d38                InterconnectOffsetList
 .rodata.rm49_guide
                0x0000000000009d3a        0x4 CMakeFiles/kiibohd.elf.dir/Macro/PartialMap/macro.c.o
                0x0000000000009d3a                rm49_guide
 .rodata.capListCLIDict_DescEntry
                0x0000000000009d3e       0x3c CMakeFiles/kiibohd.elf.dir/Macro/PartialMap/macro.c.o
                0x0000000000009d3e                capListCLIDict_DescEntry
 .rodata.rm99_guide
                0x0000000000009d7a        0x4 CMakeFiles/kiibohd.elf.dir/Macro/PartialMap/macro.c.o
                0x0000000000009d7a                rm99_guide
 .rodata.tm82_guide
                0x0000000000009d7e        0x5 CMakeFiles/kiibohd.elf.dir/Macro/PartialMap/macro.c.o
                0x0000000000009d7e                tm82_guide
 .rodata.tm54_guide
                0x0000000000009d83        0x5 CMakeFiles/kiibohd.elf.dir/Macro/PartialMap/macro.c.o
                0x0000000000009d83                tm54_guide
 .rodata.rm22_guide
                0x0000000000009d88        0x4 CMakeFiles/kiibohd.elf.dir/Macro/PartialMap/macro.c.o
                0x0000000000009d88                rm22_guide
 .rodata.tm26_guide
                0x0000000000009d8c        0x5 CMakeFiles/kiibohd.elf.dir/Macro/PartialMap/macro.c.o
                0x0000000000009d8c                tm26_guide
 .rodata.tm78_guide
                0x0000000000009d91        0x5 CMakeFiles/kiibohd.elf.dir/Macro/PartialMap/macro.c.o
                0x0000000000009d91                tm78_guide
 *fill*         0x0000000000009d96        0x2 
 .rodata.macroCLIDict
                0x0000000000009d98       0xa8 CMakeFiles/kiibohd.elf.dir/Macro/PartialMap/macro.c.o
                0x0000000000009d98                macroCLIDict
 .rodata.rm85_guide
                0x0000000000009e40        0x4 CMakeFiles/kiibohd.elf.dir/Macro/PartialMap/macro.c.o
                0x0000000000009e40                rm85_guide
 .rodata.default_tl_0x40
                0x0000000000009e44        0x4 CMakeFiles/kiibohd.elf.dir/Macro/PartialMap/macro.c.o
                0x0000000000009e44                default_tl_0x40
 .rodata.default_tl_0x41
                0x0000000000009e48        0x4 CMakeFiles/kiibohd.elf.dir/Macro/PartialMap/macro.c.o
                0x0000000000009e48                default_tl_0x41
 .rodata.default_tl_0x42
                0x0000000000009e4c        0x8 CMakeFiles/kiibohd.elf.dir/Macro/PartialMap/macro.c.o
                0x0000000000009e4c                default_tl_0x42
 .rodata.default_tl_0x43
                0x0000000000009e54        0x8 CMakeFiles/kiibohd.elf.dir/Macro/PartialMap/macro.c.o
                0x0000000000009e54                default_tl_0x43
 .rodata.layer1_tl_0x0C
                0x0000000000009e5c        0x8 CMakeFiles/kiibohd.elf.dir/Macro/PartialMap/macro.c.o
                0x0000000000009e5c                layer1_tl_0x0C
 .rodata.layer1_tl_0x0D
                0x0000000000009e64        0x8 CMakeFiles/kiibohd.elf.dir/Macro/PartialMap/macro.c.o
                0x0000000000009e64                layer1_tl_0x0D
 .rodata.default_tl_0x46
                0x0000000000009e6c        0x8 CMakeFiles/kiibohd.elf.dir/Macro/PartialMap/macro.c.o
                0x0000000000009e6c                default_tl_0x46
 .rodata.layer1_tl_0x0F
                0x0000000000009e74        0x8 CMakeFiles/kiibohd.elf.dir/Macro/PartialMap/macro.c.o
                0x0000000000009e74                layer1_tl_0x0F
 .rodata.default_tl_0x48
                0x0000000000009e7c        0x8 CMakeFiles/kiibohd.elf.dir/Macro/PartialMap/macro.c.o
                0x0000000000009e7c                default_tl_0x48
 .rodata.default_tl_0x49
                0x0000000000009e84        0x8 CMakeFiles/kiibohd.elf.dir/Macro/PartialMap/macro.c.o
                0x0000000000009e84                default_tl_0x49
 .rodata.tm7_guide
                0x0000000000009e8c        0x5 CMakeFiles/kiibohd.elf.dir/Macro/PartialMap/macro.c.o
                0x0000000000009e8c                tm7_guide
 .rodata.rm79_guide
                0x0000000000009e91        0x6 CMakeFiles/kiibohd.elf.dir/Macro/PartialMap/macro.c.o
                0x0000000000009e91                rm79_guide
 .rodata.tm138_guide
                0x0000000000009e97        0x5 CMakeFiles/kiibohd.elf.dir/Macro/PartialMap/macro.c.o
                0x0000000000009e97                tm138_guide
 .rodata.default_tl_0x4A
                0x0000000000009e9c        0x8 CMakeFiles/kiibohd.elf.dir/Macro/PartialMap/macro.c.o
                0x0000000000009e9c                default_tl_0x4A
 .rodata.default_tl_0x4B
                0x0000000000009ea4        0x8 CMakeFiles/kiibohd.elf.dir/Macro/PartialMap/macro.c.o
                0x0000000000009ea4                default_tl_0x4B
 .rodata.default_tl_0x4C
                0x0000000000009eac        0x8 CMakeFiles/kiibohd.elf.dir/Macro/PartialMap/macro.c.o
                0x0000000000009eac                default_tl_0x4C
 .rodata.default_tl_0x4D
                0x0000000000009eb4        0x8 CMakeFiles/kiibohd.elf.dir/Macro/PartialMap/macro.c.o
                0x0000000000009eb4                default_tl_0x4D
 .rodata.default_tl_0x4E
                0x0000000000009ebc        0x8 CMakeFiles/kiibohd.elf.dir/Macro/PartialMap/macro.c.o
                0x0000000000009ebc                default_tl_0x4E
 .rodata.default_tl_0x4F
                0x0000000000009ec4        0x8 CMakeFiles/kiibohd.elf.dir/Macro/PartialMap/macro.c.o
                0x0000000000009ec4                default_tl_0x4F
 .rodata.layer1_tl_0x47
                0x0000000000009ecc        0x4 CMakeFiles/kiibohd.elf.dir/Macro/PartialMap/macro.c.o
                0x0000000000009ecc                layer1_tl_0x47
 .rodata.tm20_guide
                0x0000000000009ed0        0x5 CMakeFiles/kiibohd.elf.dir/Macro/PartialMap/macro.c.o
                0x0000000000009ed0                tm20_guide
 .rodata.rm70_guide
                0x0000000000009ed5        0x6 CMakeFiles/kiibohd.elf.dir/Macro/PartialMap/macro.c.o
                0x0000000000009ed5                rm70_guide
 .rodata.rm98_guide
                0x0000000000009edb        0x4 CMakeFiles/kiibohd.elf.dir/Macro/PartialMap/macro.c.o
                0x0000000000009edb                rm98_guide
 *fill*         0x0000000000009edf        0x1 
 .rodata.default_tl_0x57
                0x0000000000009ee0        0x8 CMakeFiles/kiibohd.elf.dir/Macro/PartialMap/macro.c.o
                0x0000000000009ee0                default_tl_0x57
 .rodata.rm42_guide
                0x0000000000009ee8        0x4 CMakeFiles/kiibohd.elf.dir/Macro/PartialMap/macro.c.o
                0x0000000000009ee8                rm42_guide
 .rodata.rm46_guide
                0x0000000000009eec        0x4 CMakeFiles/kiibohd.elf.dir/Macro/PartialMap/macro.c.o
                0x0000000000009eec                rm46_guide
 .rodata.ResultMacroList
                0x0000000000009ef0      0x1c0 CMakeFiles/kiibohd.elf.dir/Macro/PartialMap/macro.c.o
                0x0000000000009ef0                ResultMacroList
 .rodata.default_tl_0x50
                0x000000000000a0b0        0x8 CMakeFiles/kiibohd.elf.dir/Macro/PartialMap/macro.c.o
                0x000000000000a0b0                default_tl_0x50
 .rodata.rm66_guide
                0x000000000000a0b8        0x6 CMakeFiles/kiibohd.elf.dir/Macro/PartialMap/macro.c.o
                0x000000000000a0b8                rm66_guide
 *fill*         0x000000000000a0be        0x2 
 .rodata.default_tl_0x52
                0x000000000000a0c0        0x8 CMakeFiles/kiibohd.elf.dir/Macro/PartialMap/macro.c.o
                0x000000000000a0c0                default_tl_0x52
 .rodata.default_tl_0x53
                0x000000000000a0c8        0x8 CMakeFiles/kiibohd.elf.dir/Macro/PartialMap/macro.c.o
                0x000000000000a0c8                default_tl_0x53
 .rodata.rm18_guide
                0x000000000000a0d0        0x4 CMakeFiles/kiibohd.elf.dir/Macro/PartialMap/macro.c.o
                0x000000000000a0d0                rm18_guide
 .rodata.default_tl_0x54
                0x000000000000a0d4        0x8 CMakeFiles/kiibohd.elf.dir/Macro/PartialMap/macro.c.o
                0x000000000000a0d4                default_tl_0x54
 .rodata.default_tl_0x55
                0x000000000000a0dc        0x8 CMakeFiles/kiibohd.elf.dir/Macro/PartialMap/macro.c.o
                0x000000000000a0dc                default_tl_0x55
 .rodata.rm5_guide
                0x000000000000a0e4        0x4 CMakeFiles/kiibohd.elf.dir/Macro/PartialMap/macro.c.o
                0x000000000000a0e4                rm5_guide
 .rodata.default_tl_0x56
                0x000000000000a0e8        0x8 CMakeFiles/kiibohd.elf.dir/Macro/PartialMap/macro.c.o
                0x000000000000a0e8                default_tl_0x56
 .rodata.layer1_tl_0x10
                0x000000000000a0f0        0x4 CMakeFiles/kiibohd.elf.dir/Macro/PartialMap/macro.c.o
                0x000000000000a0f0                layer1_tl_0x10
 .rodata.layer1_tl_0x11
                0x000000000000a0f4        0x4 CMakeFiles/kiibohd.elf.dir/Macro/PartialMap/macro.c.o
                0x000000000000a0f4                layer1_tl_0x11
 .rodata.layer1_tl_0x12
                0x000000000000a0f8        0x4 CMakeFiles/kiibohd.elf.dir/Macro/PartialMap/macro.c.o
                0x000000000000a0f8                layer1_tl_0x12
 .rodata.layer1_tl_0x13
                0x000000000000a0fc        0x4 CMakeFiles/kiibohd.elf.dir/Macro/PartialMap/macro.c.o
                0x000000000000a0fc                layer1_tl_0x13
 .rodata.layer1_tl_0x14
                0x000000000000a100        0x4 CMakeFiles/kiibohd.elf.dir/Macro/PartialMap/macro.c.o
                0x000000000000a100                layer1_tl_0x14
 .rodata.layer1_tl_0x15
                0x000000000000a104        0x8 CMakeFiles/kiibohd.elf.dir/Macro/PartialMap/macro.c.o
                0x000000000000a104                layer1_tl_0x15
 .rodata.layer1_tl_0x16
                0x000000000000a10c        0x8 CMakeFiles/kiibohd.elf.dir/Macro/PartialMap/macro.c.o
                0x000000000000a10c                layer1_tl_0x16
 .rodata.layer1_tl_0x17
                0x000000000000a114        0x8 CMakeFiles/kiibohd.elf.dir/Macro/PartialMap/macro.c.o
                0x000000000000a114                layer1_tl_0x17
 .rodata.layer1_tl_0x18
                0x000000000000a11c        0x8 CMakeFiles/kiibohd.elf.dir/Macro/PartialMap/macro.c.o
                0x000000000000a11c                layer1_tl_0x18
 .rodata.layer1_tl_0x19
                0x000000000000a124        0x8 CMakeFiles/kiibohd.elf.dir/Macro/PartialMap/macro.c.o
                0x000000000000a124                layer1_tl_0x19
 .rodata.tm39_guide
                0x000000000000a12c        0x5 CMakeFiles/kiibohd.elf.dir/Macro/PartialMap/macro.c.o
                0x000000000000a12c                tm39_guide
 .rodata.tm131_guide
                0x000000000000a131        0x5 CMakeFiles/kiibohd.elf.dir/Macro/PartialMap/macro.c.o
                0x000000000000a131                tm131_guide
 *fill*         0x000000000000a136        0x2 
 .rodata.default_tl_0x51
                0x000000000000a138        0x8 CMakeFiles/kiibohd.elf.dir/Macro/PartialMap/macro.c.o
                0x000000000000a138                default_tl_0x51
 .rodata.layer1_tl_0x1A
                0x000000000000a140        0x4 CMakeFiles/kiibohd.elf.dir/Macro/PartialMap/macro.c.o
                0x000000000000a140                layer1_tl_0x1A
 .rodata.layer1_tl_0x1B
                0x000000000000a144        0x4 CMakeFiles/kiibohd.elf.dir/Macro/PartialMap/macro.c.o
                0x000000000000a144                layer1_tl_0x1B
 .rodata.layer1_tl_0x1C
                0x000000000000a148        0x4 CMakeFiles/kiibohd.elf.dir/Macro/PartialMap/macro.c.o
                0x000000000000a148                layer1_tl_0x1C
 .rodata.layer1_tl_0x1D
                0x000000000000a14c        0x4 CMakeFiles/kiibohd.elf.dir/Macro/PartialMap/macro.c.o
                0x000000000000a14c                layer1_tl_0x1D
 .rodata.layer1_tl_0x1E
                0x000000000000a150        0x4 CMakeFiles/kiibohd.elf.dir/Macro/PartialMap/macro.c.o
                0x000000000000a150                layer1_tl_0x1E
 .rodata.layer1_tl_0x1F
                0x000000000000a154        0x8 CMakeFiles/kiibohd.elf.dir/Macro/PartialMap/macro.c.o
                0x000000000000a154                layer1_tl_0x1F
 .rodata.default_tl_0x58
                0x000000000000a15c        0x8 CMakeFiles/kiibohd.elf.dir/Macro/PartialMap/macro.c.o
                0x000000000000a15c                default_tl_0x58
 .rodata.default_tl_0x59
                0x000000000000a164        0x8 CMakeFiles/kiibohd.elf.dir/Macro/PartialMap/macro.c.o
                0x000000000000a164                default_tl_0x59
 .rodata.tm127_guide
                0x000000000000a16c        0x5 CMakeFiles/kiibohd.elf.dir/Macro/PartialMap/macro.c.o
                0x000000000000a16c                tm127_guide
 .rodata.rm94_guide
                0x000000000000a171        0x4 CMakeFiles/kiibohd.elf.dir/Macro/PartialMap/macro.c.o
                0x000000000000a171                rm94_guide
 .rodata.tm97_guide
                0x000000000000a175        0x5 CMakeFiles/kiibohd.elf.dir/Macro/PartialMap/macro.c.o
                0x000000000000a175                tm97_guide
 .rodata.rm97_guide
                0x000000000000a17a        0x4 CMakeFiles/kiibohd.elf.dir/Macro/PartialMap/macro.c.o
                0x000000000000a17a                rm97_guide
 .rodata.tm4_guide
                0x000000000000a17e        0x5 CMakeFiles/kiibohd.elf.dir/Macro/PartialMap/macro.c.o
                0x000000000000a17e                tm4_guide
 .rodata.tm95_guide
                0x000000000000a183        0x5 CMakeFiles/kiibohd.elf.dir/Macro/PartialMap/macro.c.o
                0x000000000000a183                tm95_guide
 .rodata.tm30_guide
                0x000000000000a188        0x5 CMakeFiles/kiibohd.elf.dir/Macro/PartialMap/macro.c.o
                0x000000000000a188                tm30_guide
 .rodata.tm89_guide
                0x000000000000a18d        0x5 CMakeFiles/kiibohd.elf.dir/Macro/PartialMap/macro.c.o
                0x000000000000a18d                tm89_guide
 .rodata.rm31_guide
                0x000000000000a192        0x4 CMakeFiles/kiibohd.elf.dir/Macro/PartialMap/macro.c.o
                0x000000000000a192                rm31_guide
 .rodata.rm83_guide
                0x000000000000a196        0x4 CMakeFiles/kiibohd.elf.dir/Macro/PartialMap/macro.c.o
                0x000000000000a196                rm83_guide
 .rodata.tm69_guide
                0x000000000000a19a        0x5 CMakeFiles/kiibohd.elf.dir/Macro/PartialMap/macro.c.o
                0x000000000000a19a                tm69_guide
 .rodata.tm29_guide
                0x000000000000a19f        0x5 CMakeFiles/kiibohd.elf.dir/Macro/PartialMap/macro.c.o
                0x000000000000a19f                tm29_guide
 .rodata.rm27_guide
                0x000000000000a1a4        0x4 CMakeFiles/kiibohd.elf.dir/Macro/PartialMap/macro.c.o
                0x000000000000a1a4                rm27_guide
 .rodata.layer2_tl_0x3D
                0x000000000000a1a8        0x4 CMakeFiles/kiibohd.elf.dir/Macro/PartialMap/macro.c.o
                0x000000000000a1a8                layer2_tl_0x3D
 .rodata.tm60_guide
                0x000000000000a1ac        0x5 CMakeFiles/kiibohd.elf.dir/Macro/PartialMap/macro.c.o
                0x000000000000a1ac                tm60_guide
 .rodata.tm56_guide
                0x000000000000a1b1        0x5 CMakeFiles/kiibohd.elf.dir/Macro/PartialMap/macro.c.o
                0x000000000000a1b1                tm56_guide
 .rodata.tm108_guide
                0x000000000000a1b6        0x5 CMakeFiles/kiibohd.elf.dir/Macro/PartialMap/macro.c.o
                0x000000000000a1b6                tm108_guide
 .rodata.tm84_guide
                0x000000000000a1bb        0x5 CMakeFiles/kiibohd.elf.dir/Macro/PartialMap/macro.c.o
                0x000000000000a1bb                tm84_guide
 .rodata.layer1_tl_0x20
                0x000000000000a1c0        0x8 CMakeFiles/kiibohd.elf.dir/Macro/PartialMap/macro.c.o
                0x000000000000a1c0                layer1_tl_0x20
 .rodata.layer1_tl_0x21
                0x000000000000a1c8        0x8 CMakeFiles/kiibohd.elf.dir/Macro/PartialMap/macro.c.o
                0x000000000000a1c8                layer1_tl_0x21
 .rodata.layer1_tl_0x22
                0x000000000000a1d0        0x8 CMakeFiles/kiibohd.elf.dir/Macro/PartialMap/macro.c.o
                0x000000000000a1d0                layer1_tl_0x22
 .rodata.layer1_tl_0x23
                0x000000000000a1d8        0x4 CMakeFiles/kiibohd.elf.dir/Macro/PartialMap/macro.c.o
                0x000000000000a1d8                layer1_tl_0x23
 .rodata.layer1_tl_0x24
                0x000000000000a1dc        0x4 CMakeFiles/kiibohd.elf.dir/Macro/PartialMap/macro.c.o
                0x000000000000a1dc                layer1_tl_0x24
 .rodata.layer1_tl_0x25
                0x000000000000a1e0        0x4 CMakeFiles/kiibohd.elf.dir/Macro/PartialMap/macro.c.o
                0x000000000000a1e0                layer1_tl_0x25
 .rodata.layer1_tl_0x26
                0x000000000000a1e4        0x4 CMakeFiles/kiibohd.elf.dir/Macro/PartialMap/macro.c.o
                0x000000000000a1e4                layer1_tl_0x26
 .rodata.layer1_tl_0x27
                0x000000000000a1e8        0x4 CMakeFiles/kiibohd.elf.dir/Macro/PartialMap/macro.c.o
                0x000000000000a1e8                layer1_tl_0x27
 .rodata.layer1_tl_0x28
                0x000000000000a1ec        0x4 CMakeFiles/kiibohd.elf.dir/Macro/PartialMap/macro.c.o
                0x000000000000a1ec                layer1_tl_0x28
 .rodata.layer1_tl_0x29
                0x000000000000a1f0        0x4 CMakeFiles/kiibohd.elf.dir/Macro/PartialMap/macro.c.o
                0x000000000000a1f0                layer1_tl_0x29
 .rodata.tm120_guide
                0x000000000000a1f4        0x5 CMakeFiles/kiibohd.elf.dir/Macro/PartialMap/macro.c.o
                0x000000000000a1f4                tm120_guide
 *fill*         0x000000000000a1f9        0x3 
 .rodata.layer1_tl_0x2A
                0x000000000000a1fc        0x4 CMakeFiles/kiibohd.elf.dir/Macro/PartialMap/macro.c.o
                0x000000000000a1fc                layer1_tl_0x2A
 .rodata.layer1_tl_0x2B
                0x000000000000a200        0x4 CMakeFiles/kiibohd.elf.dir/Macro/PartialMap/macro.c.o
                0x000000000000a200                layer1_tl_0x2B
 .rodata.tm83_guide
                0x000000000000a204        0x5 CMakeFiles/kiibohd.elf.dir/Macro/PartialMap/macro.c.o
                0x000000000000a204                tm83_guide
 .rodata.tm116_guide
                0x000000000000a209        0x5 CMakeFiles/kiibohd.elf.dir/Macro/PartialMap/macro.c.o
                0x000000000000a209                tm116_guide
 *fill*         0x000000000000a20e        0x2 
 .rodata.layer1_tl_0x2E
                0x000000000000a210        0x4 CMakeFiles/kiibohd.elf.dir/Macro/PartialMap/macro.c.o
                0x000000000000a210                layer1_tl_0x2E
 .rodata.layer1_tl_0x2F
                0x000000000000a214        0x4 CMakeFiles/kiibohd.elf.dir/Macro/PartialMap/macro.c.o
                0x000000000000a214                layer1_tl_0x2F
 .rodata.rm110_guide
                0x000000000000a218        0x4 CMakeFiles/kiibohd.elf.dir/Macro/PartialMap/macro.c.o
                0x000000000000a218                rm110_guide
 .rodata.layer1_tl_0x0E
                0x000000000000a21c        0x8 CMakeFiles/kiibohd.elf.dir/Macro/PartialMap/macro.c.o
                0x000000000000a21c                layer1_tl_0x0E
 .rodata.tm23_guide
                0x000000000000a224        0x5 CMakeFiles/kiibohd.elf.dir/Macro/PartialMap/macro.c.o
                0x000000000000a224                tm23_guide
 *fill*         0x000000000000a229        0x3 
 .rodata.CapabilitiesList
                0x000000000000a22c       0x78 CMakeFiles/kiibohd.elf.dir/Macro/PartialMap/macro.c.o
                0x000000000000a22c                CapabilitiesList
 .rodata.rm106_guide
                0x000000000000a2a4        0x4 CMakeFiles/kiibohd.elf.dir/Macro/PartialMap/macro.c.o
                0x000000000000a2a4                rm106_guide
 .rodata.keyPressCLIDict_DescEntry
                0x000000000000a2a8       0x6e CMakeFiles/kiibohd.elf.dir/Macro/PartialMap/macro.c.o
                0x000000000000a2a8                keyPressCLIDict_DescEntry
 .rodata.tm17_guide
                0x000000000000a316        0x5 CMakeFiles/kiibohd.elf.dir/Macro/PartialMap/macro.c.o
                0x000000000000a316                tm17_guide
 .rodata.rm92_guide
                0x000000000000a31b        0x6 CMakeFiles/kiibohd.elf.dir/Macro/PartialMap/macro.c.o
                0x000000000000a31b                rm92_guide
 *fill*         0x000000000000a321        0x3 
 .rodata.layer2_tl_0x45
                0x000000000000a324        0x8 CMakeFiles/kiibohd.elf.dir/Macro/PartialMap/macro.c.o
                0x000000000000a324                layer2_tl_0x45
 .rodata.rm72_guide
                0x000000000000a32c        0x6 CMakeFiles/kiibohd.elf.dir/Macro/PartialMap/macro.c.o
                0x000000000000a32c                rm72_guide
 .rodata.tm15_guide
                0x000000000000a332        0x5 CMakeFiles/kiibohd.elf.dir/Macro/PartialMap/macro.c.o
                0x000000000000a332                tm15_guide
 .rodata.rm44_guide
                0x000000000000a337        0x4 CMakeFiles/kiibohd.elf.dir/Macro/PartialMap/macro.c.o
                0x000000000000a337                rm44_guide
 .rodata.tm55_guide
                0x000000000000a33b        0x5 CMakeFiles/kiibohd.elf.dir/Macro/PartialMap/macro.c.o
                0x000000000000a33b                tm55_guide
 .rodata.rm16_guide
                0x000000000000a340        0x4 CMakeFiles/kiibohd.elf.dir/Macro/PartialMap/macro.c.o
                0x000000000000a340                rm16_guide
 .rodata.rm68_guide
                0x000000000000a344        0x6 CMakeFiles/kiibohd.elf.dir/Macro/PartialMap/macro.c.o
                0x000000000000a344                rm68_guide
 .rodata.tm87_guide
                0x000000000000a34a        0x5 CMakeFiles/kiibohd.elf.dir/Macro/PartialMap/macro.c.o
                0x000000000000a34a                tm87_guide
 .rodata.rm26_guide
                0x000000000000a34f        0x5 CMakeFiles/kiibohd.elf.dir/Macro/PartialMap/macro.c.o
                0x000000000000a34f                rm26_guide
 .rodata.tm73_guide
                0x000000000000a354        0x5 CMakeFiles/kiibohd.elf.dir/Macro/PartialMap/macro.c.o
                0x000000000000a354                tm73_guide
 .rodata.rm7_guide
                0x000000000000a359        0x4 CMakeFiles/kiibohd.elf.dir/Macro/PartialMap/macro.c.o
                0x000000000000a359                rm7_guide
 .rodata.tm45_guide
                0x000000000000a35d        0x5 CMakeFiles/kiibohd.elf.dir/Macro/PartialMap/macro.c.o
                0x000000000000a35d                tm45_guide
 *fill*         0x000000000000a362        0x2 
 .rodata.layer1_tl_0x30
                0x000000000000a364        0x4 CMakeFiles/kiibohd.elf.dir/Macro/PartialMap/macro.c.o
                0x000000000000a364                layer1_tl_0x30
 .rodata.layer1_tl_0x31
                0x000000000000a368        0x4 CMakeFiles/kiibohd.elf.dir/Macro/PartialMap/macro.c.o
                0x000000000000a368                layer1_tl_0x31
 .rodata.layer1_tl_0x32
                0x000000000000a36c        0x4 CMakeFiles/kiibohd.elf.dir/Macro/PartialMap/macro.c.o
                0x000000000000a36c                layer1_tl_0x32
 .rodata.layer1_tl_0x33
                0x000000000000a370        0x4 CMakeFiles/kiibohd.elf.dir/Macro/PartialMap/macro.c.o
                0x000000000000a370                layer1_tl_0x33
 .rodata.layer1_tl_0x34
                0x000000000000a374        0x4 CMakeFiles/kiibohd.elf.dir/Macro/PartialMap/macro.c.o
                0x000000000000a374                layer1_tl_0x34
 .rodata.layer1_tl_0x35
                0x000000000000a378        0x4 CMakeFiles/kiibohd.elf.dir/Macro/PartialMap/macro.c.o
                0x000000000000a378                layer1_tl_0x35
 .rodata.layer1_tl_0x36
                0x000000000000a37c        0x4 CMakeFiles/kiibohd.elf.dir/Macro/PartialMap/macro.c.o
                0x000000000000a37c                layer1_tl_0x36
 .rodata.layer1_tl_0x37
                0x000000000000a380        0x4 CMakeFiles/kiibohd.elf.dir/Macro/PartialMap/macro.c.o
                0x000000000000a380                layer1_tl_0x37
 .rodata.layer1_tl_0x38
                0x000000000000a384        0x4 CMakeFiles/kiibohd.elf.dir/Macro/PartialMap/macro.c.o
                0x000000000000a384                layer1_tl_0x38
 .rodata.tm134_guide
                0x000000000000a388        0x5 CMakeFiles/kiibohd.elf.dir/Macro/PartialMap/macro.c.o
                0x000000000000a388                tm134_guide
 .rodata.tm133_guide
                0x000000000000a38d        0x5 CMakeFiles/kiibohd.elf.dir/Macro/PartialMap/macro.c.o
                0x000000000000a38d                tm133_guide
 .rodata.tm105_guide
                0x000000000000a392        0x5 CMakeFiles/kiibohd.elf.dir/Macro/PartialMap/macro.c.o
                0x000000000000a392                tm105_guide
 .rodata.tm11_guide
                0x000000000000a397        0x5 CMakeFiles/kiibohd.elf.dir/Macro/PartialMap/macro.c.o
                0x000000000000a397                tm11_guide
 .rodata.layer1_tl_0x3A
                0x000000000000a39c        0x8 CMakeFiles/kiibohd.elf.dir/Macro/PartialMap/macro.c.o
                0x000000000000a39c                layer1_tl_0x3A
 .rodata.layer1_tl_0x3B
                0x000000000000a3a4        0x8 CMakeFiles/kiibohd.elf.dir/Macro/PartialMap/macro.c.o
                0x000000000000a3a4                layer1_tl_0x3B
 .rodata.layer1_tl_0x3C
                0x000000000000a3ac        0x8 CMakeFiles/kiibohd.elf.dir/Macro/PartialMap/macro.c.o
                0x000000000000a3ac                layer1_tl_0x3C
 .rodata.layer1_tl_0x3D
                0x000000000000a3b4        0x4 CMakeFiles/kiibohd.elf.dir/Macro/PartialMap/macro.c.o
                0x000000000000a3b4                layer1_tl_0x3D
 .rodata.layer1_tl_0x3E
                0x000000000000a3b8        0x4 CMakeFiles/kiibohd.elf.dir/Macro/PartialMap/macro.c.o
                0x000000000000a3b8                layer1_tl_0x3E
 .rodata.tm129_guide
                0x000000000000a3bc        0x5 CMakeFiles/kiibohd.elf.dir/Macro/PartialMap/macro.c.o
                0x000000000000a3bc                tm129_guide
 .rodata.macroDebugCLIDict_DescEntry
                0x000000000000a3c1       0x51 CMakeFiles/kiibohd.elf.dir/Macro/PartialMap/macro.c.o
                0x000000000000a3c1                macroDebugCLIDict_DescEntry
 .rodata.tm99_guide
                0x000000000000a412        0x5 CMakeFiles/kiibohd.elf.dir/Macro/PartialMap/macro.c.o
                0x000000000000a412                tm99_guide
 .rodata.rm80_guide
                0x000000000000a417        0x6 CMakeFiles/kiibohd.elf.dir/Macro/PartialMap/macro.c.o
                0x000000000000a417                rm80_guide
 .rodata.tm32_guide
                0x000000000000a41d        0x5 CMakeFiles/kiibohd.elf.dir/Macro/PartialMap/macro.c.o
                0x000000000000a41d                tm32_guide
 .rodata.rm61_guide
                0x000000000000a422        0x4 CMakeFiles/kiibohd.elf.dir/Macro/PartialMap/macro.c.o
                0x000000000000a422                rm61_guide
 .rodata.rm33_guide
                0x000000000000a426        0x4 CMakeFiles/kiibohd.elf.dir/Macro/PartialMap/macro.c.o
                0x000000000000a426                rm33_guide
 .rodata.rm14_guide
                0x000000000000a42a        0x4 CMakeFiles/kiibohd.elf.dir/Macro/PartialMap/macro.c.o
                0x000000000000a42a                rm14_guide
 .rodata.rm57_guide
                0x000000000000a42e        0x4 CMakeFiles/kiibohd.elf.dir/Macro/PartialMap/macro.c.o
                0x000000000000a42e                rm57_guide
 .rodata.rm29_guide
                0x000000000000a432        0x4 CMakeFiles/kiibohd.elf.dir/Macro/PartialMap/macro.c.o
                0x000000000000a432                rm29_guide
 .rodata.tm90_guide
                0x000000000000a436        0x5 CMakeFiles/kiibohd.elf.dir/Macro/PartialMap/macro.c.o
                0x000000000000a436                tm90_guide
 .rodata.tm62_guide
                0x000000000000a43b        0x5 CMakeFiles/kiibohd.elf.dir/Macro/PartialMap/macro.c.o
                0x000000000000a43b                tm62_guide
 .rodata.TriggerMacroList
                0x000000000000a440      0x468 CMakeFiles/kiibohd.elf.dir/Macro/PartialMap/macro.c.o
                0x000000000000a440                TriggerMacroList
 .rodata.tm34_guide
                0x000000000000a8a8        0x5 CMakeFiles/kiibohd.elf.dir/Macro/PartialMap/macro.c.o
                0x000000000000a8a8                tm34_guide
 .rodata.rm37_guide
                0x000000000000a8ad        0x4 CMakeFiles/kiibohd.elf.dir/Macro/PartialMap/macro.c.o
                0x000000000000a8ad                rm37_guide
 .rodata.tm86_guide
                0x000000000000a8b1        0x5 CMakeFiles/kiibohd.elf.dir/Macro/PartialMap/macro.c.o
                0x000000000000a8b1                tm86_guide
 .rodata.tm58_guide
                0x000000000000a8b6        0x5 CMakeFiles/kiibohd.elf.dir/Macro/PartialMap/macro.c.o
                0x000000000000a8b6                tm58_guide
 *fill*         0x000000000000a8bb        0x1 
 .rodata.layer1_tl_0x40
                0x000000000000a8bc        0x4 CMakeFiles/kiibohd.elf.dir/Macro/PartialMap/macro.c.o
                0x000000000000a8bc                layer1_tl_0x40
 .rodata.layer1_tl_0x41
                0x000000000000a8c0        0x4 CMakeFiles/kiibohd.elf.dir/Macro/PartialMap/macro.c.o
                0x000000000000a8c0                layer1_tl_0x41
 .rodata.layer1_tl_0x42
                0x000000000000a8c4        0x8 CMakeFiles/kiibohd.elf.dir/Macro/PartialMap/macro.c.o
                0x000000000000a8c4                layer1_tl_0x42
 .rodata.layer1_tl_0x43
                0x000000000000a8cc        0x8 CMakeFiles/kiibohd.elf.dir/Macro/PartialMap/macro.c.o
                0x000000000000a8cc                layer1_tl_0x43
 .rodata.layer1_tl_0x44
                0x000000000000a8d4        0x8 CMakeFiles/kiibohd.elf.dir/Macro/PartialMap/macro.c.o
                0x000000000000a8d4                layer1_tl_0x44
 .rodata.layer1_tl_0x45
                0x000000000000a8dc        0x8 CMakeFiles/kiibohd.elf.dir/Macro/PartialMap/macro.c.o
                0x000000000000a8dc                layer1_tl_0x45
 .rodata.layer1_tl_0x46
                0x000000000000a8e4        0x8 CMakeFiles/kiibohd.elf.dir/Macro/PartialMap/macro.c.o
                0x000000000000a8e4                layer1_tl_0x46
 .rodata.tm122_guide
                0x000000000000a8ec        0x5 CMakeFiles/kiibohd.elf.dir/Macro/PartialMap/macro.c.o
                0x000000000000a8ec                tm122_guide
 *fill*         0x000000000000a8f1        0x3 
 .rodata.layer1_tl_0x48
                0x000000000000a8f4        0x4 CMakeFiles/kiibohd.elf.dir/Macro/PartialMap/macro.c.o
                0x000000000000a8f4                layer1_tl_0x48
 .rodata.layer1_tl_0x49
                0x000000000000a8f8        0x4 CMakeFiles/kiibohd.elf.dir/Macro/PartialMap/macro.c.o
                0x000000000000a8f8                layer1_tl_0x49
 .rodata.rm20_guide
                0x000000000000a8fc        0x4 CMakeFiles/kiibohd.elf.dir/Macro/PartialMap/macro.c.o
                0x000000000000a8fc                rm20_guide
 .rodata.layer1_tl_0x4A
                0x000000000000a900        0x4 CMakeFiles/kiibohd.elf.dir/Macro/PartialMap/macro.c.o
                0x000000000000a900                layer1_tl_0x4A
 .rodata.layer1_tl_0x4B
                0x000000000000a904        0x4 CMakeFiles/kiibohd.elf.dir/Macro/PartialMap/macro.c.o
                0x000000000000a904                layer1_tl_0x4B
 .rodata.layer1_tl_0x4C
                0x000000000000a908        0x8 CMakeFiles/kiibohd.elf.dir/Macro/PartialMap/macro.c.o
                0x000000000000a908                layer1_tl_0x4C
 .rodata.layer1_tl_0x4D
                0x000000000000a910        0x8 CMakeFiles/kiibohd.elf.dir/Macro/PartialMap/macro.c.o
                0x000000000000a910                layer1_tl_0x4D
 .rodata.layer1_tl_0x4E
                0x000000000000a918        0x8 CMakeFiles/kiibohd.elf.dir/Macro/PartialMap/macro.c.o
                0x000000000000a918                layer1_tl_0x4E
 .rodata.layer1_tl_0x4F
                0x000000000000a920        0x8 CMakeFiles/kiibohd.elf.dir/Macro/PartialMap/macro.c.o
                0x000000000000a920                layer1_tl_0x4F
 .rodata.rm108_guide
                0x000000000000a928        0x4 CMakeFiles/kiibohd.elf.dir/Macro/PartialMap/macro.c.o
                0x000000000000a928                rm108_guide
 .rodata.tm21_guide
                0x000000000000a92c        0x5 CMakeFiles/kiibohd.elf.dir/Macro/PartialMap/macro.c.o
                0x000000000000a92c                tm21_guide
 .rodata.rm50_guide
                0x000000000000a931        0x4 CMakeFiles/kiibohd.elf.dir/Macro/PartialMap/macro.c.o
                0x000000000000a931                rm50_guide
 .rodata.rm2_guide
                0x000000000000a935        0x4 CMakeFiles/kiibohd.elf.dir/Macro/PartialMap/macro.c.o
                0x000000000000a935                rm2_guide
 *fill*         0x000000000000a939        0x3 
 .rodata.default_tl_0x1D
                0x000000000000a93c        0x8 CMakeFiles/kiibohd.elf.dir/Macro/PartialMap/macro.c.o
                0x000000000000a93c                default_tl_0x1D
 .rodata.rm74_guide
                0x000000000000a944        0x4 CMakeFiles/kiibohd.elf.dir/Macro/PartialMap/macro.c.o
                0x000000000000a944                rm74_guide
 .rodata.tm103_guide
                0x000000000000a948        0x5 CMakeFiles/kiibohd.elf.dir/Macro/PartialMap/macro.c.o
                0x000000000000a948                tm103_guide
 *fill*         0x000000000000a94d        0x3 
 .rodata.layer2_tl_0x0C
                0x000000000000a950        0x8 CMakeFiles/kiibohd.elf.dir/Macro/PartialMap/macro.c.o
                0x000000000000a950                layer2_tl_0x0C
 .rodata.layer2_tl_0x0D
                0x000000000000a958        0x8 CMakeFiles/kiibohd.elf.dir/Macro/PartialMap/macro.c.o
                0x000000000000a958                layer2_tl_0x0D
 .rodata.layer2_tl_0x0E
                0x000000000000a960        0x8 CMakeFiles/kiibohd.elf.dir/Macro/PartialMap/macro.c.o
                0x000000000000a960                layer2_tl_0x0E
 .rodata.layer2_tl_0x0F
                0x000000000000a968        0x8 CMakeFiles/kiibohd.elf.dir/Macro/PartialMap/macro.c.o
                0x000000000000a968                layer2_tl_0x0F
 .rodata.tm51_guide
                0x000000000000a970        0x5 CMakeFiles/kiibohd.elf.dir/Macro/PartialMap/macro.c.o
                0x000000000000a970                tm51_guide
 .rodata.rm12_guide
                0x000000000000a975        0x6 CMakeFiles/kiibohd.elf.dir/Macro/PartialMap/macro.c.o
                0x000000000000a975                rm12_guide
 .rodata.tm75_guide
                0x000000000000a97b        0x5 CMakeFiles/kiibohd.elf.dir/Macro/PartialMap/macro.c.o
                0x000000000000a97b                tm75_guide
 .rodata.rm9_guide
                0x000000000000a980        0x4 CMakeFiles/kiibohd.elf.dir/Macro/PartialMap/macro.c.o
                0x000000000000a980                rm9_guide
 .rodata.tm67_guide
                0x000000000000a984        0x5 CMakeFiles/kiibohd.elf.dir/Macro/PartialMap/macro.c.o
                0x000000000000a984                tm67_guide
 .rodata.tm19_guide
                0x000000000000a989        0x5 CMakeFiles/kiibohd.elf.dir/Macro/PartialMap/macro.c.o
                0x000000000000a989                tm19_guide
 .rodata.tm111_guide
                0x000000000000a98e        0x5 CMakeFiles/kiibohd.elf.dir/Macro/PartialMap/macro.c.o
                0x000000000000a98e                tm111_guide
 .rodata.tm6_guide
                0x000000000000a993        0x5 CMakeFiles/kiibohd.elf.dir/Macro/PartialMap/macro.c.o
                0x000000000000a993                tm6_guide
 .rodata.tm135_guide
                0x000000000000a998        0x5 CMakeFiles/kiibohd.elf.dir/Macro/PartialMap/macro.c.o
                0x000000000000a998                tm135_guide
 .rodata.tm107_guide
                0x000000000000a99d        0x5 CMakeFiles/kiibohd.elf.dir/Macro/PartialMap/macro.c.o
                0x000000000000a99d                tm107_guide
 .rodata.tm71_guide
                0x000000000000a9a2        0x5 CMakeFiles/kiibohd.elf.dir/Macro/PartialMap/macro.c.o
                0x000000000000a9a2                tm71_guide
 .rodata.tm114_guide
                0x000000000000a9a7        0x5 CMakeFiles/kiibohd.elf.dir/Macro/PartialMap/macro.c.o
                0x000000000000a9a7                tm114_guide
 .rodata.rm101_guide
                0x000000000000a9ac        0x4 CMakeFiles/kiibohd.elf.dir/Macro/PartialMap/macro.c.o
                0x000000000000a9ac                rm101_guide
 .rodata.layer2_tl_0x10
                0x000000000000a9b0        0x4 CMakeFiles/kiibohd.elf.dir/Macro/PartialMap/macro.c.o
                0x000000000000a9b0                layer2_tl_0x10
 .rodata.layer2_tl_0x11
                0x000000000000a9b4        0x4 CMakeFiles/kiibohd.elf.dir/Macro/PartialMap/macro.c.o
                0x000000000000a9b4                layer2_tl_0x11
 .rodata.layer2_tl_0x12
                0x000000000000a9b8        0x4 CMakeFiles/kiibohd.elf.dir/Macro/PartialMap/macro.c.o
                0x000000000000a9b8                layer2_tl_0x12
 .rodata.layer2_tl_0x13
                0x000000000000a9bc        0x4 CMakeFiles/kiibohd.elf.dir/Macro/PartialMap/macro.c.o
                0x000000000000a9bc                layer2_tl_0x13
 .rodata.layer2_tl_0x14
                0x000000000000a9c0        0x4 CMakeFiles/kiibohd.elf.dir/Macro/PartialMap/macro.c.o
                0x000000000000a9c0                layer2_tl_0x14
 .rodata.layer2_tl_0x15
                0x000000000000a9c4        0x8 CMakeFiles/kiibohd.elf.dir/Macro/PartialMap/macro.c.o
                0x000000000000a9c4                layer2_tl_0x15
 .rodata.layer2_tl_0x16
                0x000000000000a9cc        0x8 CMakeFiles/kiibohd.elf.dir/Macro/PartialMap/macro.c.o
                0x000000000000a9cc                layer2_tl_0x16
 .rodata.layer2_tl_0x17
                0x000000000000a9d4        0x8 CMakeFiles/kiibohd.elf.dir/Macro/PartialMap/macro.c.o
                0x000000000000a9d4                layer2_tl_0x17
 .rodata.layer2_tl_0x18
                0x000000000000a9dc        0x8 CMakeFiles/kiibohd.elf.dir/Macro/PartialMap/macro.c.o
                0x000000000000a9dc                layer2_tl_0x18
 .rodata.layer2_tl_0x19
                0x000000000000a9e4        0x8 CMakeFiles/kiibohd.elf.dir/Macro/PartialMap/macro.c.o
                0x000000000000a9e4                layer2_tl_0x19
 .rodata.rm35_guide
                0x000000000000a9ec        0x4 CMakeFiles/kiibohd.elf.dir/Macro/PartialMap/macro.c.o
                0x000000000000a9ec                rm35_guide
 .rodata.keyHoldCLIDict_DescEntry
                0x000000000000a9f0       0x6d CMakeFiles/kiibohd.elf.dir/Macro/PartialMap/macro.c.o
                0x000000000000a9f0                keyHoldCLIDict_DescEntry
 *fill*         0x000000000000aa5d        0x3 
 .rodata.layer2_tl_0x1A
                0x000000000000aa60        0x4 CMakeFiles/kiibohd.elf.dir/Macro/PartialMap/macro.c.o
                0x000000000000aa60                layer2_tl_0x1A
 .rodata.layer2_tl_0x1B
                0x000000000000aa64        0x4 CMakeFiles/kiibohd.elf.dir/Macro/PartialMap/macro.c.o
                0x000000000000aa64                layer2_tl_0x1B
 .rodata.layer2_tl_0x1C
                0x000000000000aa68        0x4 CMakeFiles/kiibohd.elf.dir/Macro/PartialMap/macro.c.o
                0x000000000000aa68                layer2_tl_0x1C
 .rodata.layer2_tl_0x1D
                0x000000000000aa6c        0x4 CMakeFiles/kiibohd.elf.dir/Macro/PartialMap/macro.c.o
                0x000000000000aa6c                layer2_tl_0x1D
 .rodata.layer2_tl_0x1E
                0x000000000000aa70        0x4 CMakeFiles/kiibohd.elf.dir/Macro/PartialMap/macro.c.o
                0x000000000000aa70                layer2_tl_0x1E
 .rodata.layer2_tl_0x1F
                0x000000000000aa74        0x4 CMakeFiles/kiibohd.elf.dir/Macro/PartialMap/macro.c.o
                0x000000000000aa74                layer2_tl_0x1F
 .rodata.layerDebugCLIDict_DescEntry
                0x000000000000aa78       0x35 CMakeFiles/kiibohd.elf.dir/Macro/PartialMap/macro.c.o
                0x000000000000aa78                layerDebugCLIDict_DescEntry
 .rodata.tm92_guide
                0x000000000000aaad        0x5 CMakeFiles/kiibohd.elf.dir/Macro/PartialMap/macro.c.o
                0x000000000000aaad                tm92_guide
 .rodata.tm64_guide
                0x000000000000aab2        0x5 CMakeFiles/kiibohd.elf.dir/Macro/PartialMap/macro.c.o
                0x000000000000aab2                tm64_guide
 .rodata.tm118_guide
                0x000000000000aab7        0x5 CMakeFiles/kiibohd.elf.dir/Macro/PartialMap/macro.c.o
                0x000000000000aab7                tm118_guide
 .rodata.tm1_guide
                0x000000000000aabc        0x5 CMakeFiles/kiibohd.elf.dir/Macro/PartialMap/macro.c.o
                0x000000000000aabc                tm1_guide
 .rodata.tm36_guide
                0x000000000000aac1        0x5 CMakeFiles/kiibohd.elf.dir/Macro/PartialMap/macro.c.o
                0x000000000000aac1                tm36_guide
 .rodata.tm88_guide
                0x000000000000aac6        0x5 CMakeFiles/kiibohd.elf.dir/Macro/PartialMap/macro.c.o
                0x000000000000aac6                tm88_guide
 .rodata.rm89_guide
                0x000000000000aacb        0x6 CMakeFiles/kiibohd.elf.dir/Macro/PartialMap/macro.c.o
                0x000000000000aacb                rm89_guide
 .rodata.rm64_guide
                0x000000000000aad1        0x6 CMakeFiles/kiibohd.elf.dir/Macro/PartialMap/macro.c.o
                0x000000000000aad1                rm64_guide
 .rodata.tm124_guide
                0x000000000000aad7        0x5 CMakeFiles/kiibohd.elf.dir/Macro/PartialMap/macro.c.o
                0x000000000000aad7                tm124_guide
 .rodata.tm22_guide
                0x000000000000aadc        0x5 CMakeFiles/kiibohd.elf.dir/Macro/PartialMap/macro.c.o
                0x000000000000aadc                tm22_guide
 .rodata.tm59_guide
                0x000000000000aae1        0x5 CMakeFiles/kiibohd.elf.dir/Macro/PartialMap/macro.c.o
                0x000000000000aae1                tm59_guide
 .rodata.tm13_guide
                0x000000000000aae6        0x5 CMakeFiles/kiibohd.elf.dir/Macro/PartialMap/macro.c.o
                0x000000000000aae6                tm13_guide
 .rodata.rm91_guide
                0x000000000000aaeb        0x6 CMakeFiles/kiibohd.elf.dir/Macro/PartialMap/macro.c.o
                0x000000000000aaeb                rm91_guide
 *fill*         0x000000000000aaf1        0x3 
 .rodata.layer1_tl_0x2C
                0x000000000000aaf4        0x4 CMakeFiles/kiibohd.elf.dir/Macro/PartialMap/macro.c.o
                0x000000000000aaf4                layer1_tl_0x2C
 .rodata.layer1_tl_0x2D
                0x000000000000aaf8        0x4 CMakeFiles/kiibohd.elf.dir/Macro/PartialMap/macro.c.o
                0x000000000000aaf8                layer1_tl_0x2D
 .rodata.layer2_tl_0x20
                0x000000000000aafc        0x4 CMakeFiles/kiibohd.elf.dir/Macro/PartialMap/macro.c.o
                0x000000000000aafc                layer2_tl_0x20
 .rodata.layer2_tl_0x21
                0x000000000000ab00        0x4 CMakeFiles/kiibohd.elf.dir/Macro/PartialMap/macro.c.o
                0x000000000000ab00                layer2_tl_0x21
 .rodata.layer2_tl_0x22
                0x000000000000ab04        0x4 CMakeFiles/kiibohd.elf.dir/Macro/PartialMap/macro.c.o
                0x000000000000ab04                layer2_tl_0x22
 .rodata.layer2_tl_0x23
                0x000000000000ab08        0x4 CMakeFiles/kiibohd.elf.dir/Macro/PartialMap/macro.c.o
                0x000000000000ab08                layer2_tl_0x23
 .rodata.macroProcCLIDict_DescEntry
                0x000000000000ab0c       0x1f CMakeFiles/kiibohd.elf.dir/Macro/PartialMap/macro.c.o
                0x000000000000ab0c                macroProcCLIDict_DescEntry
 *fill*         0x000000000000ab2b        0x1 
 .rodata.layer2_tl_0x25
                0x000000000000ab2c        0x4 CMakeFiles/kiibohd.elf.dir/Macro/PartialMap/macro.c.o
                0x000000000000ab2c                layer2_tl_0x25
 .rodata.layer2_tl_0x26
                0x000000000000ab30        0x4 CMakeFiles/kiibohd.elf.dir/Macro/PartialMap/macro.c.o
                0x000000000000ab30                layer2_tl_0x26
 .rodata.layer2_tl_0x27
                0x000000000000ab34        0x4 CMakeFiles/kiibohd.elf.dir/Macro/PartialMap/macro.c.o
                0x000000000000ab34                layer2_tl_0x27
 .rodata.layer2_tl_0x28
                0x000000000000ab38        0x4 CMakeFiles/kiibohd.elf.dir/Macro/PartialMap/macro.c.o
                0x000000000000ab38                layer2_tl_0x28
 .rodata.layer2_tl_0x29
                0x000000000000ab3c        0x4 CMakeFiles/kiibohd.elf.dir/Macro/PartialMap/macro.c.o
                0x000000000000ab3c                layer2_tl_0x29
 .rodata.rm76_guide
                0x000000000000ab40        0x6 CMakeFiles/kiibohd.elf.dir/Macro/PartialMap/macro.c.o
                0x000000000000ab40                rm76_guide
 .rodata.tm106_guide
                0x000000000000ab46        0x5 CMakeFiles/kiibohd.elf.dir/Macro/PartialMap/macro.c.o
                0x000000000000ab46                tm106_guide
 .rodata.rm48_guide
                0x000000000000ab4b        0x4 CMakeFiles/kiibohd.elf.dir/Macro/PartialMap/macro.c.o
                0x000000000000ab4b                rm48_guide
 .rodata.tm119_guide
                0x000000000000ab4f        0x5 CMakeFiles/kiibohd.elf.dir/Macro/PartialMap/macro.c.o
                0x000000000000ab4f                tm119_guide
 .rodata.default_tl_0x0C
                0x000000000000ab54        0x8 CMakeFiles/kiibohd.elf.dir/Macro/PartialMap/macro.c.o
                0x000000000000ab54                default_tl_0x0C
 .rodata.layer2_tl_0x2A
                0x000000000000ab5c        0x4 CMakeFiles/kiibohd.elf.dir/Macro/PartialMap/macro.c.o
                0x000000000000ab5c                layer2_tl_0x2A
 .rodata.layer2_tl_0x2B
                0x000000000000ab60        0x4 CMakeFiles/kiibohd.elf.dir/Macro/PartialMap/macro.c.o
                0x000000000000ab60                layer2_tl_0x2B
 .rodata.layer2_tl_0x2C
                0x000000000000ab64        0x4 CMakeFiles/kiibohd.elf.dir/Macro/PartialMap/macro.c.o
                0x000000000000ab64                layer2_tl_0x2C
 .rodata.layer2_tl_0x2D
                0x000000000000ab68        0x4 CMakeFiles/kiibohd.elf.dir/Macro/PartialMap/macro.c.o
                0x000000000000ab68                layer2_tl_0x2D
 .rodata.layer2_tl_0x2E
                0x000000000000ab6c        0x4 CMakeFiles/kiibohd.elf.dir/Macro/PartialMap/macro.c.o
                0x000000000000ab6c                layer2_tl_0x2E
 .rodata.layer2_tl_0x2F
                0x000000000000ab70        0x4 CMakeFiles/kiibohd.elf.dir/Macro/PartialMap/macro.c.o
                0x000000000000ab70                layer2_tl_0x2F
 .rodata.tm53_guide
                0x000000000000ab74        0x5 CMakeFiles/kiibohd.elf.dir/Macro/PartialMap/macro.c.o
                0x000000000000ab74                tm53_guide
 .rodata.tm25_guide
                0x000000000000ab79        0x5 CMakeFiles/kiibohd.elf.dir/Macro/PartialMap/macro.c.o
                0x000000000000ab79                tm25_guide
 .rodata.rm52_guide
                0x000000000000ab7e        0x4 CMakeFiles/kiibohd.elf.dir/Macro/PartialMap/macro.c.o
                0x000000000000ab7e                rm52_guide
 .rodata.tm77_guide
                0x000000000000ab82        0x5 CMakeFiles/kiibohd.elf.dir/Macro/PartialMap/macro.c.o
                0x000000000000ab82                tm77_guide
 .rodata.rm38_guide
                0x000000000000ab87        0x5 CMakeFiles/kiibohd.elf.dir/Macro/PartialMap/macro.c.o
                0x000000000000ab87                rm38_guide
 .rodata.tm49_guide
                0x000000000000ab8c        0x5 CMakeFiles/kiibohd.elf.dir/Macro/PartialMap/macro.c.o
                0x000000000000ab8c                tm49_guide
 .rodata.rm78_guide
                0x000000000000ab91        0x6 CMakeFiles/kiibohd.elf.dir/Macro/PartialMap/macro.c.o
                0x000000000000ab91                rm78_guide
 .rodata.tm10_guide
                0x000000000000ab97        0x5 CMakeFiles/kiibohd.elf.dir/Macro/PartialMap/macro.c.o
                0x000000000000ab97                tm10_guide
 .rodata.tm113_guide
                0x000000000000ab9c        0x5 CMakeFiles/kiibohd.elf.dir/Macro/PartialMap/macro.c.o
                0x000000000000ab9c                tm113_guide
 .rodata.tm47_guide
                0x000000000000aba1        0x5 CMakeFiles/kiibohd.elf.dir/Macro/PartialMap/macro.c.o
                0x000000000000aba1                tm47_guide
 .rodata.rm11_guide
                0x000000000000aba6        0x4 CMakeFiles/kiibohd.elf.dir/Macro/PartialMap/macro.c.o
                0x000000000000aba6                rm11_guide
 .rodata.tm137_guide
                0x000000000000abaa        0x5 CMakeFiles/kiibohd.elf.dir/Macro/PartialMap/macro.c.o
                0x000000000000abaa                tm137_guide
 .rodata.tm109_guide
                0x000000000000abaf        0x5 CMakeFiles/kiibohd.elf.dir/Macro/PartialMap/macro.c.o
                0x000000000000abaf                tm109_guide
 .rodata.rm103_guide
                0x000000000000abb4        0x4 CMakeFiles/kiibohd.elf.dir/Macro/PartialMap/macro.c.o
                0x000000000000abb4                rm103_guide
 .rodata.layer3_tl_0x15
                0x000000000000abb8        0x8 CMakeFiles/kiibohd.elf.dir/Macro/PartialMap/macro.c.o
                0x000000000000abb8                layer3_tl_0x15
 .rodata.LayerIndex
                0x000000000000abc0       0x30 CMakeFiles/kiibohd.elf.dir/Macro/PartialMap/macro.c.o
                0x000000000000abc0                LayerIndex
 .rodata.tm74_guide
                0x000000000000abf0        0x5 CMakeFiles/kiibohd.elf.dir/Macro/PartialMap/macro.c.o
                0x000000000000abf0                tm74_guide
 .rodata.tm40_guide
                0x000000000000abf5        0x5 CMakeFiles/kiibohd.elf.dir/Macro/PartialMap/macro.c.o
                0x000000000000abf5                tm40_guide
 *fill*         0x000000000000abfa        0x2 
 .rodata.layer3_tl_0x18
                0x000000000000abfc        0x8 CMakeFiles/kiibohd.elf.dir/Macro/PartialMap/macro.c.o
                0x000000000000abfc                layer3_tl_0x18
 .rodata.tm31_guide
                0x000000000000ac04        0x5 CMakeFiles/kiibohd.elf.dir/Macro/PartialMap/macro.c.o
                0x000000000000ac04                tm31_guide
 .rodata.tm12_guide
                0x000000000000ac09        0x5 CMakeFiles/kiibohd.elf.dir/Macro/PartialMap/macro.c.o
                0x000000000000ac09                tm12_guide
 .rodata.rm41_guide
                0x000000000000ac0e        0x4 CMakeFiles/kiibohd.elf.dir/Macro/PartialMap/macro.c.o
                0x000000000000ac0e                rm41_guide
 *fill*         0x000000000000ac12        0x2 
 .rodata.layer2_tl_0x30
                0x000000000000ac14        0x4 CMakeFiles/kiibohd.elf.dir/Macro/PartialMap/macro.c.o
                0x000000000000ac14                layer2_tl_0x30
 .rodata.layer2_tl_0x31
                0x000000000000ac18        0x4 CMakeFiles/kiibohd.elf.dir/Macro/PartialMap/macro.c.o
                0x000000000000ac18                layer2_tl_0x31
 .rodata.layer2_tl_0x32
                0x000000000000ac1c        0x4 CMakeFiles/kiibohd.elf.dir/Macro/PartialMap/macro.c.o
                0x000000000000ac1c                layer2_tl_0x32
 .rodata.layer2_tl_0x33
                0x000000000000ac20        0x4 CMakeFiles/kiibohd.elf.dir/Macro/PartialMap/macro.c.o
                0x000000000000ac20                layer2_tl_0x33
 .rodata.default_tl_0x2B
                0x000000000000ac24        0x8 CMakeFiles/kiibohd.elf.dir/Macro/PartialMap/macro.c.o
                0x000000000000ac24                default_tl_0x2B
 .rodata.layer2_tl_0x35
                0x000000000000ac2c        0x4 CMakeFiles/kiibohd.elf.dir/Macro/PartialMap/macro.c.o
                0x000000000000ac2c                layer2_tl_0x35
 .rodata.layer2_tl_0x36
                0x000000000000ac30        0x4 CMakeFiles/kiibohd.elf.dir/Macro/PartialMap/macro.c.o
                0x000000000000ac30                layer2_tl_0x36
 .rodata.layer2_tl_0x37
                0x000000000000ac34        0x4 CMakeFiles/kiibohd.elf.dir/Macro/PartialMap/macro.c.o
                0x000000000000ac34                layer2_tl_0x37
 .rodata.layer2_tl_0x38
                0x000000000000ac38        0x4 CMakeFiles/kiibohd.elf.dir/Macro/PartialMap/macro.c.o
                0x000000000000ac38                layer2_tl_0x38
 .rodata.layer2_tl_0x39
                0x000000000000ac3c        0x8 CMakeFiles/kiibohd.elf.dir/Macro/PartialMap/macro.c.o
                0x000000000000ac3c                layer2_tl_0x39
 .rodata.layer2_tl_0x24
                0x000000000000ac44        0x4 CMakeFiles/kiibohd.elf.dir/Macro/PartialMap/macro.c.o
                0x000000000000ac44                layer2_tl_0x24
 .rodata.tm100_guide
                0x000000000000ac48        0x5 CMakeFiles/kiibohd.elf.dir/Macro/PartialMap/macro.c.o
                0x000000000000ac48                tm100_guide
 *fill*         0x000000000000ac4d        0x3 
 .rodata.layer3_tl_0x1A
                0x000000000000ac50        0x4 CMakeFiles/kiibohd.elf.dir/Macro/PartialMap/macro.c.o
                0x000000000000ac50                layer3_tl_0x1A
 .rodata.tm70_guide
                0x000000000000ac54        0x5 CMakeFiles/kiibohd.elf.dir/Macro/PartialMap/macro.c.o
                0x000000000000ac54                tm70_guide
 .rodata.rm4_guide
                0x000000000000ac59        0x4 CMakeFiles/kiibohd.elf.dir/Macro/PartialMap/macro.c.o
                0x000000000000ac59                rm4_guide
 *fill*         0x000000000000ac5d        0x3 
 .rodata.layer2_tl_0x3A
                0x000000000000ac60        0x8 CMakeFiles/kiibohd.elf.dir/Macro/PartialMap/macro.c.o
                0x000000000000ac60                layer2_tl_0x3A
 .rodata.layer2_tl_0x3B
                0x000000000000ac68        0x8 CMakeFiles/kiibohd.elf.dir/Macro/PartialMap/macro.c.o
                0x000000000000ac68                layer2_tl_0x3B
 .rodata.layer2_tl_0x3C
                0x000000000000ac70        0x8 CMakeFiles/kiibohd.elf.dir/Macro/PartialMap/macro.c.o
                0x000000000000ac70                layer2_tl_0x3C
 .rodata.layer3_tl_0x1D
                0x000000000000ac78        0x4 CMakeFiles/kiibohd.elf.dir/Macro/PartialMap/macro.c.o
                0x000000000000ac78                layer3_tl_0x1D
 .rodata.layer2_tl_0x3E
                0x000000000000ac7c        0x4 CMakeFiles/kiibohd.elf.dir/Macro/PartialMap/macro.c.o
                0x000000000000ac7c                layer2_tl_0x3E
 .rodata.tm94_guide
                0x000000000000ac80        0x5 CMakeFiles/kiibohd.elf.dir/Macro/PartialMap/macro.c.o
                0x000000000000ac80                tm94_guide
 .rodata.tm66_guide
                0x000000000000ac85        0x5 CMakeFiles/kiibohd.elf.dir/Macro/PartialMap/macro.c.o
                0x000000000000ac85                tm66_guide
 .rodata.tm3_guide
                0x000000000000ac8a        0x5 CMakeFiles/kiibohd.elf.dir/Macro/PartialMap/macro.c.o
                0x000000000000ac8a                tm3_guide
 .rodata.tm38_guide
                0x000000000000ac8f        0x5 CMakeFiles/kiibohd.elf.dir/Macro/PartialMap/macro.c.o
                0x000000000000ac8f                tm38_guide
 .rodata.tm130_guide
                0x000000000000ac94        0x5 CMakeFiles/kiibohd.elf.dir/Macro/PartialMap/macro.c.o
                0x000000000000ac94                tm130_guide
 .rodata.tm102_guide
                0x000000000000ac99        0x5 CMakeFiles/kiibohd.elf.dir/Macro/PartialMap/macro.c.o
                0x000000000000ac99                tm102_guide
 .rodata.rm59_guide
                0x000000000000ac9e        0x5 CMakeFiles/kiibohd.elf.dir/Macro/PartialMap/macro.c.o
                0x000000000000ac9e                rm59_guide
 .rodata.tm126_guide
                0x000000000000aca3        0x5 CMakeFiles/kiibohd.elf.dir/Macro/PartialMap/macro.c.o
                0x000000000000aca3                tm126_guide
 .rodata.layer1_tl_0x39
                0x000000000000aca8        0x8 CMakeFiles/kiibohd.elf.dir/Macro/PartialMap/macro.c.o
                0x000000000000aca8                layer1_tl_0x39
 .rodata.tm9_guide
                0x000000000000acb0        0x5 CMakeFiles/kiibohd.elf.dir/Macro/PartialMap/macro.c.o
                0x000000000000acb0                tm9_guide
 .rodata.rm30_guide
                0x000000000000acb5        0x5 CMakeFiles/kiibohd.elf.dir/Macro/PartialMap/macro.c.o
                0x000000000000acb5                rm30_guide
 .rodata.rm82_guide
                0x000000000000acba        0x4 CMakeFiles/kiibohd.elf.dir/Macro/PartialMap/macro.c.o
                0x000000000000acba                rm82_guide
 *fill*         0x000000000000acbe        0x2 
 .rodata.layer2_tl_0x40
                0x000000000000acc0        0x4 CMakeFiles/kiibohd.elf.dir/Macro/PartialMap/macro.c.o
                0x000000000000acc0                layer2_tl_0x40
 .rodata.layer2_tl_0x41
                0x000000000000acc4        0x4 CMakeFiles/kiibohd.elf.dir/Macro/PartialMap/macro.c.o
                0x000000000000acc4                layer2_tl_0x41
 .rodata.layer2_tl_0x42
                0x000000000000acc8        0x8 CMakeFiles/kiibohd.elf.dir/Macro/PartialMap/macro.c.o
                0x000000000000acc8                layer2_tl_0x42
 .rodata.layer2_tl_0x43
                0x000000000000acd0        0x8 CMakeFiles/kiibohd.elf.dir/Macro/PartialMap/macro.c.o
                0x000000000000acd0                layer2_tl_0x43
 .rodata.layer2_tl_0x44
                0x000000000000acd8        0x8 CMakeFiles/kiibohd.elf.dir/Macro/PartialMap/macro.c.o
                0x000000000000acd8                layer2_tl_0x44
 .rodata.layer1_tl_0x3F
                0x000000000000ace0        0x4 CMakeFiles/kiibohd.elf.dir/Macro/PartialMap/macro.c.o
                0x000000000000ace0                layer1_tl_0x3F
 .rodata.layer2_tl_0x46
                0x000000000000ace4        0x8 CMakeFiles/kiibohd.elf.dir/Macro/PartialMap/macro.c.o
                0x000000000000ace4                layer2_tl_0x46
 .rodata.layer2_tl_0x48
                0x000000000000acec        0x4 CMakeFiles/kiibohd.elf.dir/Macro/PartialMap/macro.c.o
                0x000000000000acec                layer2_tl_0x48
 .rodata.layer2_tl_0x49
                0x000000000000acf0        0x4 CMakeFiles/kiibohd.elf.dir/Macro/PartialMap/macro.c.o
                0x000000000000acf0                layer2_tl_0x49
 .rodata.rm8_guide
                0x000000000000acf4        0x4 CMakeFiles/kiibohd.elf.dir/Macro/PartialMap/macro.c.o
                0x000000000000acf4                rm8_guide
 .rodata.default_tl_0x1C
                0x000000000000acf8        0x8 CMakeFiles/kiibohd.elf.dir/Macro/PartialMap/macro.c.o
                0x000000000000acf8                default_tl_0x1C
 .rodata.layer2_tl_0x4A
                0x000000000000ad00        0x4 CMakeFiles/kiibohd.elf.dir/Macro/PartialMap/macro.c.o
                0x000000000000ad00                layer2_tl_0x4A
 .rodata.layer2_tl_0x4B
                0x000000000000ad04        0x4 CMakeFiles/kiibohd.elf.dir/Macro/PartialMap/macro.c.o
                0x000000000000ad04                layer2_tl_0x4B
 .rodata.layer2_tl_0x4C
                0x000000000000ad08        0x8 CMakeFiles/kiibohd.elf.dir/Macro/PartialMap/macro.c.o
                0x000000000000ad08                layer2_tl_0x4C
 .rodata.default_tl_0x1E
                0x000000000000ad10        0x8 CMakeFiles/kiibohd.elf.dir/Macro/PartialMap/macro.c.o
                0x000000000000ad10                default_tl_0x1E
 .rodata.default_tl_0x1F
                0x000000000000ad18        0x8 CMakeFiles/kiibohd.elf.dir/Macro/PartialMap/macro.c.o
                0x000000000000ad18                default_tl_0x1F
 .rodata.tm27_guide
                0x000000000000ad20        0x5 CMakeFiles/kiibohd.elf.dir/Macro/PartialMap/macro.c.o
                0x000000000000ad20                tm27_guide
 .rodata.tm79_guide
                0x000000000000ad25        0x5 CMakeFiles/kiibohd.elf.dir/Macro/PartialMap/macro.c.o
                0x000000000000ad25                tm79_guide
 .rodata.tm28_guide
                0x000000000000ad2a        0x5 CMakeFiles/kiibohd.elf.dir/Macro/PartialMap/macro.c.o
                0x000000000000ad2a                tm28_guide
 .rodata.tm115_guide
                0x000000000000ad2f        0x5 CMakeFiles/kiibohd.elf.dir/Macro/PartialMap/macro.c.o
                0x000000000000ad2f                tm115_guide
 .rodata.rm100_guide
                0x000000000000ad34        0x4 CMakeFiles/kiibohd.elf.dir/Macro/PartialMap/macro.c.o
                0x000000000000ad34                rm100_guide
 .rodata.rm13_guide
                0x000000000000ad38        0x4 CMakeFiles/kiibohd.elf.dir/Macro/PartialMap/macro.c.o
                0x000000000000ad38                rm13_guide
 .rodata.tm139_guide
                0x000000000000ad3c        0x5 CMakeFiles/kiibohd.elf.dir/Macro/PartialMap/macro.c.o
                0x000000000000ad3c                tm139_guide
 *fill*         0x000000000000ad41        0x3 
 .rodata.layer3_tl_0x20
                0x000000000000ad44        0x8 CMakeFiles/kiibohd.elf.dir/Macro/PartialMap/macro.c.o
                0x000000000000ad44                layer3_tl_0x20
 .rodata.rm1_guide
                0x000000000000ad4c        0x4 CMakeFiles/kiibohd.elf.dir/Macro/PartialMap/macro.c.o
                0x000000000000ad4c                rm1_guide
 .rodata.rm105_guide
                0x000000000000ad50        0x4 CMakeFiles/kiibohd.elf.dir/Macro/PartialMap/macro.c.o
                0x000000000000ad50                rm105_guide
 .rodata.layer3_tl_0x24
                0x000000000000ad54        0x4 CMakeFiles/kiibohd.elf.dir/Macro/PartialMap/macro.c.o
                0x000000000000ad54                layer3_tl_0x24
 .rodata.rm3_guide
                0x000000000000ad58        0x4 CMakeFiles/kiibohd.elf.dir/Macro/PartialMap/macro.c.o
                0x000000000000ad58                rm3_guide
 .rodata.rm96_guide
                0x000000000000ad5c        0x4 CMakeFiles/kiibohd.elf.dir/Macro/PartialMap/macro.c.o
                0x000000000000ad5c                rm96_guide
 .rodata.rm71_guide
                0x000000000000ad60        0x6 CMakeFiles/kiibohd.elf.dir/Macro/PartialMap/macro.c.o
                0x000000000000ad60                rm71_guide
 .rodata.tm14_guide
                0x000000000000ad66        0x5 CMakeFiles/kiibohd.elf.dir/Macro/PartialMap/macro.c.o
                0x000000000000ad66                tm14_guide
 .rodata.rm43_guide
                0x000000000000ad6b        0x4 CMakeFiles/kiibohd.elf.dir/Macro/PartialMap/macro.c.o
                0x000000000000ad6b                rm43_guide
 .rodata.rm15_guide
                0x000000000000ad6f        0x4 CMakeFiles/kiibohd.elf.dir/Macro/PartialMap/macro.c.o
                0x000000000000ad6f                rm15_guide
 .rodata.rm36_guide
                0x000000000000ad73        0x4 CMakeFiles/kiibohd.elf.dir/Macro/PartialMap/macro.c.o
                0x000000000000ad73                rm36_guide
 .rodata.rm67_guide
                0x000000000000ad77        0x6 CMakeFiles/kiibohd.elf.dir/Macro/PartialMap/macro.c.o
                0x000000000000ad77                rm67_guide
 .rodata.rm39_guide
                0x000000000000ad7d        0x4 CMakeFiles/kiibohd.elf.dir/Macro/PartialMap/macro.c.o
                0x000000000000ad7d                rm39_guide
 .rodata.rm104_guide
                0x000000000000ad81        0x4 CMakeFiles/kiibohd.elf.dir/Macro/PartialMap/macro.c.o
                0x000000000000ad81                rm104_guide
 *fill*         0x000000000000ad85        0x3 
 .rodata.layer2_tl_0x34
                0x000000000000ad88        0x4 CMakeFiles/kiibohd.elf.dir/Macro/PartialMap/macro.c.o
                0x000000000000ad88                layer2_tl_0x34
 .rodata.rm6_guide
                0x000000000000ad8c        0x6 CMakeFiles/kiibohd.elf.dir/Macro/PartialMap/macro.c.o
                0x000000000000ad8c                rm6_guide
 .rodata.tm44_guide
                0x000000000000ad92        0x5 CMakeFiles/kiibohd.elf.dir/Macro/PartialMap/macro.c.o
                0x000000000000ad92                tm44_guide
 .rodata.tm16_guide
                0x000000000000ad97        0x5 CMakeFiles/kiibohd.elf.dir/Macro/PartialMap/macro.c.o
                0x000000000000ad97                tm16_guide
 .rodata.tm96_guide
                0x000000000000ad9c        0x5 CMakeFiles/kiibohd.elf.dir/Macro/PartialMap/macro.c.o
                0x000000000000ad9c                tm96_guide
 .rodata.rm63_guide
                0x000000000000ada1        0x4 CMakeFiles/kiibohd.elf.dir/Macro/PartialMap/macro.c.o
                0x000000000000ada1                rm63_guide
 .rodata.tm68_guide
                0x000000000000ada5        0x5 CMakeFiles/kiibohd.elf.dir/Macro/PartialMap/macro.c.o
                0x000000000000ada5                tm68_guide
 .rodata.tm5_guide
                0x000000000000adaa        0x5 CMakeFiles/kiibohd.elf.dir/Macro/PartialMap/macro.c.o
                0x000000000000adaa                tm5_guide
 .rodata.tm101_guide
                0x000000000000adaf        0x5 CMakeFiles/kiibohd.elf.dir/Macro/PartialMap/macro.c.o
                0x000000000000adaf                tm101_guide
 .rodata.tm132_guide
                0x000000000000adb4        0x5 CMakeFiles/kiibohd.elf.dir/Macro/PartialMap/macro.c.o
                0x000000000000adb4                tm132_guide
 *fill*         0x000000000000adb9        0x3 
 .rodata.layer3_tl_0x16
                0x000000000000adbc        0x8 CMakeFiles/kiibohd.elf.dir/Macro/PartialMap/macro.c.o
                0x000000000000adbc                layer3_tl_0x16
 .rodata.layer3_tl_0x17
                0x000000000000adc4        0x8 CMakeFiles/kiibohd.elf.dir/Macro/PartialMap/macro.c.o
                0x000000000000adc4                layer3_tl_0x17
 .rodata.tm104_guide
                0x000000000000adcc        0x5 CMakeFiles/kiibohd.elf.dir/Macro/PartialMap/macro.c.o
                0x000000000000adcc                tm104_guide
 *fill*         0x000000000000add1        0x3 
 .rodata.layer3_tl_0x19
                0x000000000000add4        0x8 CMakeFiles/kiibohd.elf.dir/Macro/PartialMap/macro.c.o
                0x000000000000add4                layer3_tl_0x19
 .rodata.tm128_guide
                0x000000000000addc        0x5 CMakeFiles/kiibohd.elf.dir/Macro/PartialMap/macro.c.o
                0x000000000000addc                tm128_guide
 .rodata.tm98_guide
                0x000000000000ade1        0x5 CMakeFiles/kiibohd.elf.dir/Macro/PartialMap/macro.c.o
                0x000000000000ade1                tm98_guide
 *fill*         0x000000000000ade6        0x2 
 .rodata.layer3_tl_0x1B
                0x000000000000ade8        0x4 CMakeFiles/kiibohd.elf.dir/Macro/PartialMap/macro.c.o
                0x000000000000ade8                layer3_tl_0x1B
 .rodata.layer3_tl_0x1C
                0x000000000000adec        0x4 CMakeFiles/kiibohd.elf.dir/Macro/PartialMap/macro.c.o
                0x000000000000adec                layer3_tl_0x1C
 .rodata.default_tl_0x20
                0x000000000000adf0        0x8 CMakeFiles/kiibohd.elf.dir/Macro/PartialMap/macro.c.o
                0x000000000000adf0                default_tl_0x20
 .rodata.layer3_tl_0x1E
                0x000000000000adf8        0x4 CMakeFiles/kiibohd.elf.dir/Macro/PartialMap/macro.c.o
                0x000000000000adf8                layer3_tl_0x1E
 .rodata.layer3_tl_0x1F
                0x000000000000adfc        0x8 CMakeFiles/kiibohd.elf.dir/Macro/PartialMap/macro.c.o
                0x000000000000adfc                layer3_tl_0x1F
 .rodata.layer2_tl_0x3F
                0x000000000000ae04        0x4 CMakeFiles/kiibohd.elf.dir/Macro/PartialMap/macro.c.o
                0x000000000000ae04                layer2_tl_0x3F
 .rodata.tm42_guide
                0x000000000000ae08        0x5 CMakeFiles/kiibohd.elf.dir/Macro/PartialMap/macro.c.o
                0x000000000000ae08                tm42_guide
 .rodata.rm60_guide
                0x000000000000ae0d        0x4 CMakeFiles/kiibohd.elf.dir/Macro/PartialMap/macro.c.o
                0x000000000000ae0d                rm60_guide
 .rodata.rm24_guide
                0x000000000000ae11        0x4 CMakeFiles/kiibohd.elf.dir/Macro/PartialMap/macro.c.o
                0x000000000000ae11                rm24_guide
 .rodata.rm32_guide
                0x000000000000ae15        0x4 CMakeFiles/kiibohd.elf.dir/Macro/PartialMap/macro.c.o
                0x000000000000ae15                rm32_guide
 *fill*         0x000000000000ae19        0x3 
 .rodata.default_tl_0x28
                0x000000000000ae1c        0x8 CMakeFiles/kiibohd.elf.dir/Macro/PartialMap/macro.c.o
                0x000000000000ae1c                default_tl_0x28
 .rodata.rm84_guide
                0x000000000000ae24        0x4 CMakeFiles/kiibohd.elf.dir/Macro/PartialMap/macro.c.o
                0x000000000000ae24                rm84_guide
 .rodata.rm56_guide
                0x000000000000ae28        0x4 CMakeFiles/kiibohd.elf.dir/Macro/PartialMap/macro.c.o
                0x000000000000ae28                rm56_guide
 .rodata.rm28_guide
                0x000000000000ae2c        0x5 CMakeFiles/kiibohd.elf.dir/Macro/PartialMap/macro.c.o
                0x000000000000ae2c                rm28_guide
 .rodata.tm61_guide
                0x000000000000ae31        0x5 CMakeFiles/kiibohd.elf.dir/Macro/PartialMap/macro.c.o
                0x000000000000ae31                tm61_guide
 .rodata.tm33_guide
                0x000000000000ae36        0x5 CMakeFiles/kiibohd.elf.dir/Macro/PartialMap/macro.c.o
                0x000000000000ae36                tm33_guide
 .rodata.rm88_guide
                0x000000000000ae3b        0x4 CMakeFiles/kiibohd.elf.dir/Macro/PartialMap/macro.c.o
                0x000000000000ae3b                rm88_guide
 .rodata.tm85_guide
                0x000000000000ae3f        0x5 CMakeFiles/kiibohd.elf.dir/Macro/PartialMap/macro.c.o
                0x000000000000ae3f                tm85_guide
 .rodata.tm57_guide
                0x000000000000ae44        0x5 CMakeFiles/kiibohd.elf.dir/Macro/PartialMap/macro.c.o
                0x000000000000ae44                tm57_guide
 .rodata.rm86_guide
                0x000000000000ae49        0x4 CMakeFiles/kiibohd.elf.dir/Macro/PartialMap/macro.c.o
                0x000000000000ae49                rm86_guide
 .rodata.tm46_guide
                0x000000000000ae4d        0x5 CMakeFiles/kiibohd.elf.dir/Macro/PartialMap/macro.c.o
                0x000000000000ae4d                tm46_guide
 *fill*         0x000000000000ae52        0x2 
 .rodata.default_tl_0x2F
                0x000000000000ae54        0x8 CMakeFiles/kiibohd.elf.dir/Macro/PartialMap/macro.c.o
                0x000000000000ae54                default_tl_0x2F
 .rodata.tm121_guide
                0x000000000000ae5c        0x5 CMakeFiles/kiibohd.elf.dir/Macro/PartialMap/macro.c.o
                0x000000000000ae5c                tm121_guide
 *fill*         0x000000000000ae61        0x3 
 .rodata.layer3_tl_0x21
                0x000000000000ae64        0x8 CMakeFiles/kiibohd.elf.dir/Macro/PartialMap/macro.c.o
                0x000000000000ae64                layer3_tl_0x21
 .rodata.layer3_tl_0x22
                0x000000000000ae6c        0x8 CMakeFiles/kiibohd.elf.dir/Macro/PartialMap/macro.c.o
                0x000000000000ae6c                layer3_tl_0x22
 .rodata.layer3_tl_0x23
                0x000000000000ae74        0x4 CMakeFiles/kiibohd.elf.dir/Macro/PartialMap/macro.c.o
                0x000000000000ae74                layer3_tl_0x23
 .rodata.macroListCLIDict_DescEntry
                0x000000000000ae78       0x2c CMakeFiles/kiibohd.elf.dir/Macro/PartialMap/macro.c.o
                0x000000000000ae78                macroListCLIDict_DescEntry
 .rodata.layer3_tl_0x25
                0x000000000000aea4        0x4 CMakeFiles/kiibohd.elf.dir/Macro/PartialMap/macro.c.o
                0x000000000000aea4                layer3_tl_0x25
 .rodata.layer3_tl_0x26
                0x000000000000aea8        0x4 CMakeFiles/kiibohd.elf.dir/Macro/PartialMap/macro.c.o
                0x000000000000aea8                layer3_tl_0x26
 .rodata.layer3_tl_0x27
                0x000000000000aeac        0x4 CMakeFiles/kiibohd.elf.dir/Macro/PartialMap/macro.c.o
                0x000000000000aeac                layer3_tl_0x27
 .rodata.layer3_tl_0x28
                0x000000000000aeb0        0x4 CMakeFiles/kiibohd.elf.dir/Macro/PartialMap/macro.c.o
                0x000000000000aeb0                layer3_tl_0x28
 .rodata.layer3_tl_0x29
                0x000000000000aeb4        0x4 CMakeFiles/kiibohd.elf.dir/Macro/PartialMap/macro.c.o
                0x000000000000aeb4                layer3_tl_0x29
 .rodata.tm117_guide
                0x000000000000aeb8        0x5 CMakeFiles/kiibohd.elf.dir/Macro/PartialMap/macro.c.o
                0x000000000000aeb8                tm117_guide
 .rodata.rm111_guide
                0x000000000000aebd        0x4 CMakeFiles/kiibohd.elf.dir/Macro/PartialMap/macro.c.o
                0x000000000000aebd                rm111_guide
 .rodata.rm55_guide
                0x000000000000aec1        0x5 CMakeFiles/kiibohd.elf.dir/Macro/PartialMap/macro.c.o
                0x000000000000aec1                rm55_guide
 *fill*         0x000000000000aec6        0x2 
 .rodata.layer3_tl_0x2A
                0x000000000000aec8        0x4 CMakeFiles/kiibohd.elf.dir/Macro/PartialMap/macro.c.o
                0x000000000000aec8                layer3_tl_0x2A
 .rodata.layer3_tl_0x2B
                0x000000000000aecc        0x4 CMakeFiles/kiibohd.elf.dir/Macro/PartialMap/macro.c.o
                0x000000000000aecc                layer3_tl_0x2B
 .rodata.layer3_tl_0x2C
                0x000000000000aed0        0x4 CMakeFiles/kiibohd.elf.dir/Macro/PartialMap/macro.c.o
                0x000000000000aed0                layer3_tl_0x2C
 .rodata.layer3_tl_0x2D
                0x000000000000aed4        0x4 CMakeFiles/kiibohd.elf.dir/Macro/PartialMap/macro.c.o
                0x000000000000aed4                layer3_tl_0x2D
 .rodata.layer3_tl_0x2E
                0x000000000000aed8        0x4 CMakeFiles/kiibohd.elf.dir/Macro/PartialMap/macro.c.o
                0x000000000000aed8                layer3_tl_0x2E
 .rodata.layer3_tl_0x2F
                0x000000000000aedc        0x4 CMakeFiles/kiibohd.elf.dir/Macro/PartialMap/macro.c.o
                0x000000000000aedc                layer3_tl_0x2F
 .rodata.rm107_guide
                0x000000000000aee0        0x4 CMakeFiles/kiibohd.elf.dir/Macro/PartialMap/macro.c.o
                0x000000000000aee0                rm107_guide
 .rodata.layer3_tl_0x31
                0x000000000000aee4        0x4 CMakeFiles/kiibohd.elf.dir/Macro/PartialMap/macro.c.o
                0x000000000000aee4                layer3_tl_0x31
 .rodata.layer3_tl_0x32
                0x000000000000aee8        0x4 CMakeFiles/kiibohd.elf.dir/Macro/PartialMap/macro.c.o
                0x000000000000aee8                layer3_tl_0x32
 .rodata.layerStateCLIDict_DescEntry
                0x000000000000aeec       0x87 CMakeFiles/kiibohd.elf.dir/Macro/PartialMap/macro.c.o
                0x000000000000aeec                layerStateCLIDict_DescEntry
 *fill*         0x000000000000af73        0x1 
 .rodata.layer3_tl_0x33
                0x000000000000af74        0x4 CMakeFiles/kiibohd.elf.dir/Macro/PartialMap/macro.c.o
                0x000000000000af74                layer3_tl_0x33
 .rodata.rm73_guide
                0x000000000000af78        0x6 CMakeFiles/kiibohd.elf.dir/Macro/PartialMap/macro.c.o
                0x000000000000af78                rm73_guide
 .rodata.rm45_guide
                0x000000000000af7e        0x4 CMakeFiles/kiibohd.elf.dir/Macro/PartialMap/macro.c.o
                0x000000000000af7e                rm45_guide
 .rodata.rm17_guide
                0x000000000000af82        0x6 CMakeFiles/kiibohd.elf.dir/Macro/PartialMap/macro.c.o
                0x000000000000af82                rm17_guide
 .rodata.rm69_guide
                0x000000000000af88        0x6 CMakeFiles/kiibohd.elf.dir/Macro/PartialMap/macro.c.o
                0x000000000000af88                rm69_guide
 .rodata.tm50_guide
                0x000000000000af8e        0x5 CMakeFiles/kiibohd.elf.dir/Macro/PartialMap/macro.c.o
                0x000000000000af8e                tm50_guide
 .rodata.rm0_guide
                0x000000000000af93        0x4 CMakeFiles/kiibohd.elf.dir/Macro/PartialMap/macro.c.o
                0x000000000000af93                rm0_guide
 *fill*         0x000000000000af97        0x1 
 .rodata.default_tl_0x02
                0x000000000000af98        0x8 CMakeFiles/kiibohd.elf.dir/Macro/PartialMap/macro.c.o
                0x000000000000af98                default_tl_0x02
 .rodata.default_tl_0x03
                0x000000000000afa0        0x8 CMakeFiles/kiibohd.elf.dir/Macro/PartialMap/macro.c.o
                0x000000000000afa0                default_tl_0x03
 .rodata.default_tl_0x04
                0x000000000000afa8        0x8 CMakeFiles/kiibohd.elf.dir/Macro/PartialMap/macro.c.o
                0x000000000000afa8                default_tl_0x04
 .rodata.default_tl_0x05
                0x000000000000afb0        0x8 CMakeFiles/kiibohd.elf.dir/Macro/PartialMap/macro.c.o
                0x000000000000afb0                default_tl_0x05
 .rodata.default_tl_0x06
                0x000000000000afb8        0x8 CMakeFiles/kiibohd.elf.dir/Macro/PartialMap/macro.c.o
                0x000000000000afb8                default_tl_0x06
 .rodata.default_tl_0x07
                0x000000000000afc0        0x8 CMakeFiles/kiibohd.elf.dir/Macro/PartialMap/macro.c.o
                0x000000000000afc0                default_tl_0x07
 .rodata.default_tl_0x08
                0x000000000000afc8        0x8 CMakeFiles/kiibohd.elf.dir/Macro/PartialMap/macro.c.o
                0x000000000000afc8                default_tl_0x08
 .rodata.default_tl_0x09
                0x000000000000afd0        0x4 CMakeFiles/kiibohd.elf.dir/Macro/PartialMap/macro.c.o
                0x000000000000afd0                default_tl_0x09
 .rodata.layer2_tl_0x47
                0x000000000000afd4        0x4 CMakeFiles/kiibohd.elf.dir/Macro/PartialMap/macro.c.o
                0x000000000000afd4                layer2_tl_0x47
 .rodata.tm110_guide
                0x000000000000afd8        0x5 CMakeFiles/kiibohd.elf.dir/Macro/PartialMap/macro.c.o
                0x000000000000afd8                tm110_guide
 .rodata.layerListCLIDict_DescEntry
                0x000000000000afdd       0x17 CMakeFiles/kiibohd.elf.dir/Macro/PartialMap/macro.c.o
                0x000000000000afdd                layerListCLIDict_DescEntry
 .rodata.default_tl_0x0A
                0x000000000000aff4        0x4 CMakeFiles/kiibohd.elf.dir/Macro/PartialMap/macro.c.o
                0x000000000000aff4                default_tl_0x0A
 .rodata.default_tl_0x0B
                0x000000000000aff8        0x8 CMakeFiles/kiibohd.elf.dir/Macro/PartialMap/macro.c.o
                0x000000000000aff8                default_tl_0x0B
 .rodata.layer3_tl_0x30
                0x000000000000b000        0x4 CMakeFiles/kiibohd.elf.dir/Macro/PartialMap/macro.c.o
                0x000000000000b000                layer3_tl_0x30
 .rodata.default_tl_0x0D
                0x000000000000b004        0x8 CMakeFiles/kiibohd.elf.dir/Macro/PartialMap/macro.c.o
                0x000000000000b004                default_tl_0x0D
 .rodata.default_tl_0x0E
                0x000000000000b00c        0x8 CMakeFiles/kiibohd.elf.dir/Macro/PartialMap/macro.c.o
                0x000000000000b00c                default_tl_0x0E
 .rodata.default_tl_0x0F
                0x000000000000b014        0x8 CMakeFiles/kiibohd.elf.dir/Macro/PartialMap/macro.c.o
                0x000000000000b014                default_tl_0x0F
 .rodata.layer3_tl_0x34
                0x000000000000b01c        0x4 CMakeFiles/kiibohd.elf.dir/Macro/PartialMap/macro.c.o
                0x000000000000b01c                layer3_tl_0x34
 .rodata.layer3_tl_0x35
                0x000000000000b020        0x4 CMakeFiles/kiibohd.elf.dir/Macro/PartialMap/macro.c.o
                0x000000000000b020                layer3_tl_0x35
 .rodata.layer3_tl_0x36
                0x000000000000b024        0x4 CMakeFiles/kiibohd.elf.dir/Macro/PartialMap/macro.c.o
                0x000000000000b024                layer3_tl_0x36
 .rodata.layer3_tl_0x37
                0x000000000000b028        0x4 CMakeFiles/kiibohd.elf.dir/Macro/PartialMap/macro.c.o
                0x000000000000b028                layer3_tl_0x37
 .rodata.layer3_tl_0x38
                0x000000000000b02c        0x4 CMakeFiles/kiibohd.elf.dir/Macro/PartialMap/macro.c.o
                0x000000000000b02c                layer3_tl_0x38
 .rodata.layer3_tl_0x39
                0x000000000000b030        0x8 CMakeFiles/kiibohd.elf.dir/Macro/PartialMap/macro.c.o
                0x000000000000b030                layer3_tl_0x39
 .rodata.tm8_guide
                0x000000000000b038        0x5 CMakeFiles/kiibohd.elf.dir/Macro/PartialMap/macro.c.o
                0x000000000000b038                tm8_guide
 .rodata.tm43_guide
                0x000000000000b03d        0x5 CMakeFiles/kiibohd.elf.dir/Macro/PartialMap/macro.c.o
                0x000000000000b03d                tm43_guide
 *fill*         0x000000000000b042        0x2 
 .rodata.layer3_tl_0x3A
                0x000000000000b044        0x8 CMakeFiles/kiibohd.elf.dir/Macro/PartialMap/macro.c.o
                0x000000000000b044                layer3_tl_0x3A
 .rodata.layer3_tl_0x3B
                0x000000000000b04c        0x8 CMakeFiles/kiibohd.elf.dir/Macro/PartialMap/macro.c.o
                0x000000000000b04c                layer3_tl_0x3B
 .rodata.layer3_tl_0x3C
                0x000000000000b054        0x8 CMakeFiles/kiibohd.elf.dir/Macro/PartialMap/macro.c.o
                0x000000000000b054                layer3_tl_0x3C
 .rodata.layer3_tl_0x3D
                0x000000000000b05c        0x4 CMakeFiles/kiibohd.elf.dir/Macro/PartialMap/macro.c.o
                0x000000000000b05c                layer3_tl_0x3D
 .rodata.layer3_tl_0x3E
                0x000000000000b060        0x4 CMakeFiles/kiibohd.elf.dir/Macro/PartialMap/macro.c.o
                0x000000000000b060                layer3_tl_0x3E
 .rodata.layer3_tl_0x3F
                0x000000000000b064        0x4 CMakeFiles/kiibohd.elf.dir/Macro/PartialMap/macro.c.o
                0x000000000000b064                layer3_tl_0x3F
 .rodata.rm90_guide
                0x000000000000b068        0x6 CMakeFiles/kiibohd.elf.dir/Macro/PartialMap/macro.c.o
                0x000000000000b068                rm90_guide
 .rodata.rm62_guide
                0x000000000000b06e        0x6 CMakeFiles/kiibohd.elf.dir/Macro/PartialMap/macro.c.o
                0x000000000000b06e                rm62_guide
 .rodata.rm34_guide
                0x000000000000b074        0x6 CMakeFiles/kiibohd.elf.dir/Macro/PartialMap/macro.c.o
                0x000000000000b074                rm34_guide
 .rodata.rm58_guide
                0x000000000000b07a        0x4 CMakeFiles/kiibohd.elf.dir/Macro/PartialMap/macro.c.o
                0x000000000000b07a                rm58_guide
 .rodata.tm91_guide
                0x000000000000b07e        0x5 CMakeFiles/kiibohd.elf.dir/Macro/PartialMap/macro.c.o
                0x000000000000b07e                tm91_guide
 .rodata.rm65_guide
                0x000000000000b083        0x4 CMakeFiles/kiibohd.elf.dir/Macro/PartialMap/macro.c.o
                0x000000000000b083                rm65_guide
 .rodata.tm63_guide
                0x000000000000b087        0x5 CMakeFiles/kiibohd.elf.dir/Macro/PartialMap/macro.c.o
                0x000000000000b087                tm63_guide
 .rodata.default_tl_0x10
                0x000000000000b08c        0x8 CMakeFiles/kiibohd.elf.dir/Macro/PartialMap/macro.c.o
                0x000000000000b08c                default_tl_0x10
 .rodata.default_tl_0x11
                0x000000000000b094        0x8 CMakeFiles/kiibohd.elf.dir/Macro/PartialMap/macro.c.o
                0x000000000000b094                default_tl_0x11
 .rodata.default_tl_0x12
                0x000000000000b09c        0x4 CMakeFiles/kiibohd.elf.dir/Macro/PartialMap/macro.c.o
                0x000000000000b09c                default_tl_0x12
 .rodata.default_tl_0x13
                0x000000000000b0a0        0x4 CMakeFiles/kiibohd.elf.dir/Macro/PartialMap/macro.c.o
                0x000000000000b0a0                default_tl_0x13
 .rodata.default_tl_0x14
                0x000000000000b0a4        0x4 CMakeFiles/kiibohd.elf.dir/Macro/PartialMap/macro.c.o
                0x000000000000b0a4                default_tl_0x14
 .rodata.default_tl_0x15
                0x000000000000b0a8        0x8 CMakeFiles/kiibohd.elf.dir/Macro/PartialMap/macro.c.o
                0x000000000000b0a8                default_tl_0x15
 .rodata.default_tl_0x16
                0x000000000000b0b0        0x8 CMakeFiles/kiibohd.elf.dir/Macro/PartialMap/macro.c.o
                0x000000000000b0b0                default_tl_0x16
 .rodata.default_tl_0x17
                0x000000000000b0b8        0x8 CMakeFiles/kiibohd.elf.dir/Macro/PartialMap/macro.c.o
                0x000000000000b0b8                default_tl_0x17
 .rodata.default_tl_0x18
                0x000000000000b0c0        0x8 CMakeFiles/kiibohd.elf.dir/Macro/PartialMap/macro.c.o
                0x000000000000b0c0                default_tl_0x18
 .rodata.default_tl_0x19
                0x000000000000b0c8        0x8 CMakeFiles/kiibohd.elf.dir/Macro/PartialMap/macro.c.o
                0x000000000000b0c8                default_tl_0x19
 .rodata.tm81_guide
                0x000000000000b0d0        0x5 CMakeFiles/kiibohd.elf.dir/Macro/PartialMap/macro.c.o
                0x000000000000b0d0                tm81_guide
 .rodata.tm123_guide
                0x000000000000b0d5        0x5 CMakeFiles/kiibohd.elf.dir/Macro/PartialMap/macro.c.o
                0x000000000000b0d5                tm123_guide
 *fill*         0x000000000000b0da        0x2 
 .rodata.default_tl_0x1A
                0x000000000000b0dc        0x8 CMakeFiles/kiibohd.elf.dir/Macro/PartialMap/macro.c.o
                0x000000000000b0dc                default_tl_0x1A
 .rodata.default_tl_0x1B
                0x000000000000b0e4        0x8 CMakeFiles/kiibohd.elf.dir/Macro/PartialMap/macro.c.o
                0x000000000000b0e4                default_tl_0x1B
 .rodata.layer3_tl_0x40
                0x000000000000b0ec        0x4 CMakeFiles/kiibohd.elf.dir/Macro/PartialMap/macro.c.o
                0x000000000000b0ec                layer3_tl_0x40
 .rodata.layer3_tl_0x41
                0x000000000000b0f0        0x4 CMakeFiles/kiibohd.elf.dir/Macro/PartialMap/macro.c.o
                0x000000000000b0f0                layer3_tl_0x41
 .rodata.layer3_tl_0x42
                0x000000000000b0f4        0x8 CMakeFiles/kiibohd.elf.dir/Macro/PartialMap/macro.c.o
                0x000000000000b0f4                layer3_tl_0x42
 .rodata.layer3_tl_0x43
                0x000000000000b0fc        0x8 CMakeFiles/kiibohd.elf.dir/Macro/PartialMap/macro.c.o
                0x000000000000b0fc                layer3_tl_0x43
 .rodata.layer3_tl_0x44
                0x000000000000b104        0x8 CMakeFiles/kiibohd.elf.dir/Macro/PartialMap/macro.c.o
                0x000000000000b104                layer3_tl_0x44
 .rodata.layer3_tl_0x45
                0x000000000000b10c        0x8 CMakeFiles/kiibohd.elf.dir/Macro/PartialMap/macro.c.o
                0x000000000000b10c                layer3_tl_0x45
 .rodata.layer3_tl_0x46
                0x000000000000b114        0x8 CMakeFiles/kiibohd.elf.dir/Macro/PartialMap/macro.c.o
                0x000000000000b114                layer3_tl_0x46
 .rodata.layer3_tl_0x47
                0x000000000000b11c        0x4 CMakeFiles/kiibohd.elf.dir/Macro/PartialMap/macro.c.o
                0x000000000000b11c                layer3_tl_0x47
 .rodata.layer3_tl_0x48
                0x000000000000b120        0x4 CMakeFiles/kiibohd.elf.dir/Macro/PartialMap/macro.c.o
                0x000000000000b120                layer3_tl_0x48
 .rodata.layer3_tl_0x49
                0x000000000000b124        0x4 CMakeFiles/kiibohd.elf.dir/Macro/PartialMap/macro.c.o
                0x000000000000b124                layer3_tl_0x49
 .rodata.rm95_guide
                0x000000000000b128        0x4 CMakeFiles/kiibohd.elf.dir/Macro/PartialMap/macro.c.o
                0x000000000000b128                rm95_guide
 .rodata.layer3_tl_0x4A
                0x000000000000b12c        0x4 CMakeFiles/kiibohd.elf.dir/Macro/PartialMap/macro.c.o
                0x000000000000b12c                layer3_tl_0x4A
 .rodata.layer3_tl_0x4B
                0x000000000000b130        0x4 CMakeFiles/kiibohd.elf.dir/Macro/PartialMap/macro.c.o
                0x000000000000b130                layer3_tl_0x4B
 .rodata.layer3_tl_0x4C
                0x000000000000b134        0x8 CMakeFiles/kiibohd.elf.dir/Macro/PartialMap/macro.c.o
                0x000000000000b134                layer3_tl_0x4C
 .rodata.layer3_tl_0x4D
                0x000000000000b13c        0x8 CMakeFiles/kiibohd.elf.dir/Macro/PartialMap/macro.c.o
                0x000000000000b13c                layer3_tl_0x4D
 .rodata.layer3_tl_0x4E
                0x000000000000b144        0x8 CMakeFiles/kiibohd.elf.dir/Macro/PartialMap/macro.c.o
                0x000000000000b144                layer3_tl_0x4E
 .rodata.rm51_guide
                0x000000000000b14c        0x4 CMakeFiles/kiibohd.elf.dir/Macro/PartialMap/macro.c.o
                0x000000000000b14c                rm51_guide
 .rodata.rm23_guide
                0x000000000000b150        0x4 CMakeFiles/kiibohd.elf.dir/Macro/PartialMap/macro.c.o
                0x000000000000b150                rm23_guide
 .rodata.rm75_guide
                0x000000000000b154        0x6 CMakeFiles/kiibohd.elf.dir/Macro/PartialMap/macro.c.o
                0x000000000000b154                rm75_guide
 .rodata.rm47_guide
                0x000000000000b15a        0x4 CMakeFiles/kiibohd.elf.dir/Macro/PartialMap/macro.c.o
                0x000000000000b15a                rm47_guide
 .rodata.rm19_guide
                0x000000000000b15e        0x4 CMakeFiles/kiibohd.elf.dir/Macro/PartialMap/macro.c.o
                0x000000000000b15e                rm19_guide
 .rodata.macroShowCLIDict_DescEntry
                0x000000000000b162       0x84 CMakeFiles/kiibohd.elf.dir/Macro/PartialMap/macro.c.o
                0x000000000000b162                macroShowCLIDict_DescEntry
 .rodata.tm80_guide
                0x000000000000b1e6        0x5 CMakeFiles/kiibohd.elf.dir/Macro/PartialMap/macro.c.o
                0x000000000000b1e6                tm80_guide
 .rodata.tm52_guide
                0x000000000000b1eb        0x5 CMakeFiles/kiibohd.elf.dir/Macro/PartialMap/macro.c.o
                0x000000000000b1eb                tm52_guide
 .rodata.tm48_guide
                0x000000000000b1f0        0x5 CMakeFiles/kiibohd.elf.dir/Macro/PartialMap/macro.c.o
                0x000000000000b1f0                tm48_guide
 .rodata.tm76_guide
                0x000000000000b1f5        0x5 CMakeFiles/kiibohd.elf.dir/Macro/PartialMap/macro.c.o
                0x000000000000b1f5                tm76_guide
 *fill*         0x000000000000b1fa        0x2 
 .rodata.default_tl_0x21
                0x000000000000b1fc        0x8 CMakeFiles/kiibohd.elf.dir/Macro/PartialMap/macro.c.o
                0x000000000000b1fc                default_tl_0x21
 .rodata.default_tl_0x22
                0x000000000000b204        0x8 CMakeFiles/kiibohd.elf.dir/Macro/PartialMap/macro.c.o
                0x000000000000b204                default_tl_0x22
 .rodata.default_tl_0x23
                0x000000000000b20c        0x8 CMakeFiles/kiibohd.elf.dir/Macro/PartialMap/macro.c.o
                0x000000000000b20c                default_tl_0x23
 .rodata.default_tl_0x24
                0x000000000000b214        0x8 CMakeFiles/kiibohd.elf.dir/Macro/PartialMap/macro.c.o
                0x000000000000b214                default_tl_0x24
 .rodata.default_tl_0x25
                0x000000000000b21c        0x8 CMakeFiles/kiibohd.elf.dir/Macro/PartialMap/macro.c.o
                0x000000000000b21c                default_tl_0x25
 .rodata.default_tl_0x26
                0x000000000000b224        0x8 CMakeFiles/kiibohd.elf.dir/Macro/PartialMap/macro.c.o
                0x000000000000b224                default_tl_0x26
 .rodata.default_tl_0x27
                0x000000000000b22c        0x8 CMakeFiles/kiibohd.elf.dir/Macro/PartialMap/macro.c.o
                0x000000000000b22c                default_tl_0x27
 .rodata.tm140_guide
                0x000000000000b234        0x5 CMakeFiles/kiibohd.elf.dir/Macro/PartialMap/macro.c.o
                0x000000000000b234                tm140_guide
 *fill*         0x000000000000b239        0x3 
 .rodata.default_tl_0x29
                0x000000000000b23c        0x8 CMakeFiles/kiibohd.elf.dir/Macro/PartialMap/macro.c.o
                0x000000000000b23c                default_tl_0x29
 .rodata.tm112_guide
                0x000000000000b244        0x5 CMakeFiles/kiibohd.elf.dir/Macro/PartialMap/macro.c.o
                0x000000000000b244                tm112_guide
 .rodata.tm35_guide
                0x000000000000b249        0x5 CMakeFiles/kiibohd.elf.dir/Macro/PartialMap/macro.c.o
                0x000000000000b249                tm35_guide
 .rodata.rm10_guide
                0x000000000000b24e        0x4 CMakeFiles/kiibohd.elf.dir/Macro/PartialMap/macro.c.o
                0x000000000000b24e                rm10_guide
 *fill*         0x000000000000b252        0x2 
 .rodata.default_tl_0x2A
                0x000000000000b254        0x8 CMakeFiles/kiibohd.elf.dir/Macro/PartialMap/macro.c.o
                0x000000000000b254                default_tl_0x2A
 .rodata.CSWTCH.65
                0x000000000000b25c       0x30 CMakeFiles/kiibohd.elf.dir/Output/pjrcUSB/output_com.c.o
 .rodata.kbdProtocolCLIDict_DescEntry
                0x000000000000b28c       0x33 CMakeFiles/kiibohd.elf.dir/Output/pjrcUSB/output_com.c.o
                0x000000000000b28c                kbdProtocolCLIDict_DescEntry
 .rodata.setKeysCLIDict_DescEntry
                0x000000000000b2bf       0x56 CMakeFiles/kiibohd.elf.dir/Output/pjrcUSB/output_com.c.o
                0x000000000000b2bf                setKeysCLIDict_DescEntry
 .rodata.outputCLIDictName
                0x000000000000b315       0x14 CMakeFiles/kiibohd.elf.dir/Output/pjrcUSB/output_com.c.o
                0x000000000000b315                outputCLIDictName
 .rodata.CSWTCH.59
                0x000000000000b329       0x2f CMakeFiles/kiibohd.elf.dir/Output/pjrcUSB/output_com.c.o
 .rodata.CSWTCH.64
                0x000000000000b358       0x30 CMakeFiles/kiibohd.elf.dir/Output/pjrcUSB/output_com.c.o
 .rodata.outputCLIDict
                0x000000000000b388       0x54 CMakeFiles/kiibohd.elf.dir/Output/pjrcUSB/output_com.c.o
                0x000000000000b388                outputCLIDict
 .rodata.sendKeysCLIDict_DescEntry
                0x000000000000b3dc       0x37 CMakeFiles/kiibohd.elf.dir/Output/pjrcUSB/output_com.c.o
                0x000000000000b3dc                sendKeysCLIDict_DescEntry
 .rodata.setModCLIDict_DescEntry
                0x000000000000b413       0x61 CMakeFiles/kiibohd.elf.dir/Output/pjrcUSB/output_com.c.o
                0x000000000000b413                setModCLIDict_DescEntry
 .rodata.str1.1
                0x000000000000b474      0x2bd CMakeFiles/kiibohd.elf.dir/Output/pjrcUSB/output_com.c.o
                                        0x2c0 (size before relaxing)
 .rodata.outputDebugCLIDict_DescEntry
                0x000000000000b731       0x1a CMakeFiles/kiibohd.elf.dir/Output/pjrcUSB/output_com.c.o
                0x000000000000b731                outputDebugCLIDict_DescEntry
 .rodata.readLEDsCLIDict_DescEntry
                0x000000000000b74b       0x40 CMakeFiles/kiibohd.elf.dir/Output/pjrcUSB/output_com.c.o
                0x000000000000b74b                readLEDsCLIDict_DescEntry
 .rodata.CSWTCH.60
                0x000000000000b78b       0x2f CMakeFiles/kiibohd.elf.dir/Output/pjrcUSB/output_com.c.o
 .rodata.CSWTCH.61
                0x000000000000b7ba       0x70 CMakeFiles/kiibohd.elf.dir/Output/pjrcUSB/output_com.c.o
 .rodata.CSWTCH.62
                0x000000000000b82a       0x70 CMakeFiles/kiibohd.elf.dir/Output/pjrcUSB/output_com.c.o
 .rodata.CSWTCH.63
                0x000000000000b89a        0x8 CMakeFiles/kiibohd.elf.dir/Output/pjrcUSB/output_com.c.o
 .rodata.usb_endpoint_config_table
                0x000000000000b8a2        0x8 CMakeFiles/kiibohd.elf.dir/Output/pjrcUSB/arm/usb_desc.c.o
                0x000000000000b8a2                usb_endpoint_config_table
 *fill*         0x000000000000b8aa        0x2 
 .rodata.usb_descriptor_list
                0x000000000000b8ac      0x138 CMakeFiles/kiibohd.elf.dir/Output/pjrcUSB/arm/usb_desc.c.o
                0x000000000000b8ac                usb_descriptor_list
 .rodata.str1.1
                0x000000000000b9e4       0x98 CMakeFiles/kiibohd.elf.dir/Output/pjrcUSB/arm/usb_dev.c.o
                                         0x9b (size before relaxing)
 .rodata.str1.1
                0x000000000000ba7c       0xb0 CMakeFiles/kiibohd.elf.dir/Output/pjrcUSB/arm/usb_keyboard.c.o
                                         0xb5 (size before relaxing)
 .rodata        0x000000000000bb2c        0x4 CMakeFiles/kiibohd.elf.dir/Debug/cli/cli.c.o
 .rodata.helpCLIDict_DescEntry
                0x000000000000bb30       0x18 CMakeFiles/kiibohd.elf.dir/Debug/cli/cli.c.o
                0x000000000000bb30                helpCLIDict_DescEntry
 .rodata.restartCLIDict_DescEntry
                0x000000000000bb48       0x47 CMakeFiles/kiibohd.elf.dir/Debug/cli/cli.c.o
                0x000000000000bb48                restartCLIDict_DescEntry
 .rodata.clearCLIDict_DescEntry
                0x000000000000bb8f       0x12 CMakeFiles/kiibohd.elf.dir/Debug/cli/cli.c.o
                0x000000000000bb8f                clearCLIDict_DescEntry
 .rodata.reloadCLIDict_DescEntry
                0x000000000000bba1       0x2b CMakeFiles/kiibohd.elf.dir/Debug/cli/cli.c.o
                0x000000000000bba1                reloadCLIDict_DescEntry
 .rodata.versionCLIDict_DescEntry
                0x000000000000bbcc       0x29 CMakeFiles/kiibohd.elf.dir/Debug/cli/cli.c.o
                0x000000000000bbcc                versionCLIDict_DescEntry
 .rodata.str1.1
                0x000000000000bbf5      0x511 CMakeFiles/kiibohd.elf.dir/Debug/cli/cli.c.o
                                        0x5bb (size before relaxing)
 .rodata.resetCLIDict_DescEntry
                0x000000000000c106       0x2e CMakeFiles/kiibohd.elf.dir/Debug/cli/cli.c.o
                0x000000000000c106                resetCLIDict_DescEntry
 .rodata.basicCLIDict
                0x000000000000c134       0x6c CMakeFiles/kiibohd.elf.dir/Debug/cli/cli.c.o
                0x000000000000c134                basicCLIDict
 .rodata.ledCLIDict_DescEntry
                0x000000000000c1a0       0x96 CMakeFiles/kiibohd.elf.dir/Debug/cli/cli.c.o
                0x000000000000c1a0                ledCLIDict_DescEntry
 .rodata.basicCLIDictName
                0x000000000000c236       0x11 CMakeFiles/kiibohd.elf.dir/Debug/cli/cli.c.o
                0x000000000000c236                basicCLIDictName
 .rodata.cliDebugCLIDict_DescEntry
                0x000000000000c247       0x3a CMakeFiles/kiibohd.elf.dir/Debug/cli/cli.c.o
                0x000000000000c247                cliDebugCLIDict_DescEntry
                0x000000000000c284                . = ALIGN (0x4)
 *fill*         0x000000000000c281        0x3 
 *(.init)

.glue_7         0x000000000000c284        0x0
 .glue_7        0x0000000000000000        0x0 linker stubs

.glue_7t        0x000000000000c284        0x0
 .glue_7t       0x0000000000000000        0x0 linker stubs

.vfp11_veneer   0x000000000000c284        0x0
 .vfp11_veneer  0x0000000000000000        0x0 linker stubs

.v4_bx          0x000000000000c284        0x0
 .v4_bx         0x0000000000000000        0x0 linker stubs

.iplt           0x000000000000c284        0x0
 .iplt          0x0000000000000000        0x0 CMakeFiles/kiibohd.elf.dir/main.c.o

.rel.dyn        0x000000000000c284        0x0
 .rel.iplt      0x0000000000000000        0x0 CMakeFiles/kiibohd.elf.dir/main.c.o

.ARM.exidx      0x000000000000c284        0x0
                0x000000000000c284                __exidx_start = .
 *(.ARM.exidx* .gnu.linkonce.armexidx.*)
                0x000000000000c284                __exidx_end = .
                0x000000000000c284                _etext = .

.usbdescriptortable
                0x000000001fff8000      0x120
                0x000000001fff8000                . = ALIGN (0x200)
 *(.usbdescriptortable*)
 .usbdescriptortable
                0x000000001fff8000      0x120 CMakeFiles/kiibohd.elf.dir/Output/pjrcUSB/arm/usb_dev.c.o

.dmabuffers     0x000000001fff8120        0x0
                0x000000001fff8120                . = ALIGN (0x4)
 *(.dmabuffers*)

.usbbuffers     0x000000001fff8120      0x870
                0x000000001fff8120                . = ALIGN (0x4)
 *(.usbbuffers*)
 .usbbuffers    0x000000001fff8120      0x870 CMakeFiles/kiibohd.elf.dir/Output/pjrcUSB/arm/usb_mem.c.o
                0x000000001fff8120                usb_buffer_memory

.data           0x000000001fff8990      0x904 load address 0x000000000000c284
                0x000000001fff8990                . = ALIGN (0x4)
                0x000000001fff8990                _sdata = .
 *(.data*)
 .data.I2C_RxBuffer
                0x000000001fff8990        0xc CMakeFiles/kiibohd.elf.dir/Scan/ISSILed/led_scan.c.o
                0x000000001fff8990                I2C_RxBuffer
 .data.I2C_TxBuffer
                0x000000001fff899c        0xc CMakeFiles/kiibohd.elf.dir/Scan/ISSILed/led_scan.c.o
                0x000000001fff899c                I2C_TxBuffer
 .data.Matrix_cols
                0x000000001fff89a8       0x12 CMakeFiles/kiibohd.elf.dir/Scan/MatrixARM/matrix_scan.c.o
                0x000000001fff89a8                Matrix_cols
 .data.Matrix_rows
                0x000000001fff89ba        0xa CMakeFiles/kiibohd.elf.dir/Scan/MatrixARM/matrix_scan.c.o
                0x000000001fff89ba                Matrix_rows
 .data.Matrix_type
                0x000000001fff89c4        0x1 CMakeFiles/kiibohd.elf.dir/Scan/MatrixARM/matrix_scan.c.o
                0x000000001fff89c4                Matrix_type
 .data.Connect_id
                0x000000001fff89c5        0x1 CMakeFiles/kiibohd.elf.dir/Scan/UARTConnect/connect_scan.c.o
                0x000000001fff89c5                Connect_id
 .data.Connect_baud
                0x000000001fff89c6        0x2 CMakeFiles/kiibohd.elf.dir/Scan/UARTConnect/connect_scan.c.o
                0x000000001fff89c6                Connect_baud
 .data.Connect_receiveFunctions
                0x000000001fff89c8       0x1c CMakeFiles/kiibohd.elf.dir/Scan/UARTConnect/connect_scan.c.o
                0x000000001fff89c8                Connect_receiveFunctions
 .data.layer3_scanMap
                0x000000001fff89e4       0xe8 CMakeFiles/kiibohd.elf.dir/Macro/PartialMap/macro.c.o
                0x000000001fff89e4                layer3_scanMap
 .data.layer1_scanMap
                0x000000001fff8acc      0x110 CMakeFiles/kiibohd.elf.dir/Macro/PartialMap/macro.c.o
                0x000000001fff8acc                layer1_scanMap
 .data.default_scanMap
                0x000000001fff8bdc      0x160 CMakeFiles/kiibohd.elf.dir/Macro/PartialMap/macro.c.o
                0x000000001fff8bdc                default_scanMap
 .data.layer2_scanMap
                0x000000001fff8d3c      0x104 CMakeFiles/kiibohd.elf.dir/Macro/PartialMap/macro.c.o
                0x000000001fff8d3c                layer2_scanMap
 .data.USBKeys_Idle_Config
                0x000000001fff8e40        0x1 CMakeFiles/kiibohd.elf.dir/Output/pjrcUSB/output_com.c.o
                0x000000001fff8e40                USBKeys_Idle_Config
 .data.USBKeys_Protocol
                0x000000001fff8e41        0x1 CMakeFiles/kiibohd.elf.dir/Output/pjrcUSB/output_com.c.o
                0x000000001fff8e41                USBKeys_Protocol
 .data.nkro_keyboard_report_desc
                0x000000001fff8e42       0x7d CMakeFiles/kiibohd.elf.dir/Output/pjrcUSB/arm/usb_desc.c.o
 .data.joystick_report_desc
                0x000000001fff8ebf       0x55 CMakeFiles/kiibohd.elf.dir/Output/pjrcUSB/arm/usb_desc.c.o
 .data.usb_string_cdc_data_name
                0x000000001fff8f14       0x38 CMakeFiles/kiibohd.elf.dir/Output/pjrcUSB/arm/usb_desc.c.o
                0x000000001fff8f14                usb_string_cdc_data_name
 .data.usb_string_joystick_name
                0x000000001fff8f4c       0x14 CMakeFiles/kiibohd.elf.dir/Output/pjrcUSB/arm/usb_desc.c.o
                0x000000001fff8f4c                usb_string_joystick_name
 .data.usb_string_mouse_name
                0x000000001fff8f60        0xe CMakeFiles/kiibohd.elf.dir/Output/pjrcUSB/arm/usb_desc.c.o
                0x000000001fff8f60                usb_string_mouse_name
 .data.usb_string_sys_ctrl_name
                0x000000001fff8f6e       0x18 CMakeFiles/kiibohd.elf.dir/Output/pjrcUSB/arm/usb_desc.c.o
                0x000000001fff8f6e                usb_string_sys_ctrl_name
 .data.usb_string_nkro_keyboard_name
                0x000000001fff8f86       0x1e CMakeFiles/kiibohd.elf.dir/Output/pjrcUSB/arm/usb_desc.c.o
                0x000000001fff8f86                usb_string_nkro_keyboard_name
 .data.config_descriptor
                0x000000001fff8fa4       0xc8 CMakeFiles/kiibohd.elf.dir/Output/pjrcUSB/arm/usb_desc.c.o
 .data.mouse_report_desc
                0x000000001fff906c       0x76 CMakeFiles/kiibohd.elf.dir/Output/pjrcUSB/arm/usb_desc.c.o
 .data.sys_ctrl_report_desc
                0x000000001fff90e2       0x35 CMakeFiles/kiibohd.elf.dir/Output/pjrcUSB/arm/usb_desc.c.o
 *fill*         0x000000001fff9117        0x1 
 .data.usb_string_keyboard_name
                0x000000001fff9118       0x1e CMakeFiles/kiibohd.elf.dir/Output/pjrcUSB/arm/usb_desc.c.o
                0x000000001fff9118                usb_string_keyboard_name
 .data.device_descriptor
                0x000000001fff9136       0x12 CMakeFiles/kiibohd.elf.dir/Output/pjrcUSB/arm/usb_desc.c.o
 .data.usb_string_cdc_status_name
                0x000000001fff9148       0x3c CMakeFiles/kiibohd.elf.dir/Output/pjrcUSB/arm/usb_desc.c.o
                0x000000001fff9148                usb_string_cdc_status_name
 .data.usb_string_manufacturer_name_default
                0x000000001fff9184       0x12 CMakeFiles/kiibohd.elf.dir/Output/pjrcUSB/arm/usb_desc.c.o
                0x000000001fff9184                usb_string_manufacturer_name_default
                0x000000001fff9184                usb_string_manufacturer_name
 .data.usb_string_product_name_default
                0x000000001fff9196       0x58 CMakeFiles/kiibohd.elf.dir/Output/pjrcUSB/arm/usb_desc.c.o
                0x000000001fff9196                usb_string_product_name
                0x000000001fff9196                usb_string_product_name_default
 .data.keyboard_report_desc
                0x000000001fff91ee       0x3f CMakeFiles/kiibohd.elf.dir/Output/pjrcUSB/arm/usb_desc.c.o
 *fill*         0x000000001fff922d        0x1 
 .data.string0  0x000000001fff922e        0x4 CMakeFiles/kiibohd.elf.dir/Output/pjrcUSB/arm/usb_desc.c.o
                0x000000001fff922e                string0
 .data.usb_string_serial_number_default
                0x000000001fff9232       0x54 CMakeFiles/kiibohd.elf.dir/Output/pjrcUSB/arm/usb_desc.c.o
                0x000000001fff9232                usb_string_serial_number_default
                0x000000001fff9232                usb_string_serial_number
 *fill*         0x000000001fff9286        0x2 
 .data.usb_buffer_available
                0x000000001fff9288        0x4 CMakeFiles/kiibohd.elf.dir/Output/pjrcUSB/arm/usb_mem.c.o
 .data.usb_cdc_line_coding
                0x000000001fff928c        0x7 CMakeFiles/kiibohd.elf.dir/Output/pjrcUSB/arm/usb_serial.c.o
                0x000000001fff928c                usb_cdc_line_coding
                0x000000001fff9294                . = ALIGN (0x4)
 *fill*         0x000000001fff9293        0x1 
                0x000000001fff9294                _edata = .

.igot.plt       0x000000001fff9294        0x0 load address 0x000000000000cb88
 .igot.plt      0x0000000000000000        0x0 CMakeFiles/kiibohd.elf.dir/main.c.o

.noinit
 *(.noinit*)

.bss            0x000000001fff9294     0x13c4 load address 0x000000000000cb88
                0x000000001fff9294                . = ALIGN (0x4)
                0x000000001fff9294                _sbss = .
 *(.bss*)
 .bss.systick_millis_count
                0x000000001fff9294        0x4 CMakeFiles/kiibohd.elf.dir/Lib/delay.c.o
                0x000000001fff9294                systick_millis_count
 .bss.LED_control_timer
                0x000000001fff9298        0x1 CMakeFiles/kiibohd.elf.dir/Scan/ISSILed/led_scan.c.o
                0x000000001fff9298                LED_control_timer
 *fill*         0x000000001fff9299        0x1 
 .bss.matrixCurScans
                0x000000001fff929a        0x2 CMakeFiles/kiibohd.elf.dir/Scan/MatrixARM/matrix_scan.c.o
                0x000000001fff929a                matrixCurScans
 .bss.matrixPrevScans
                0x000000001fff929c        0x2 CMakeFiles/kiibohd.elf.dir/Scan/MatrixARM/matrix_scan.c.o
                0x000000001fff929c                matrixPrevScans
 .bss.matrixMaxScans
                0x000000001fff929e        0x2 CMakeFiles/kiibohd.elf.dir/Scan/MatrixARM/matrix_scan.c.o
                0x000000001fff929e                matrixMaxScans
 .bss.matrixDebugMode
                0x000000001fff92a0        0x1 CMakeFiles/kiibohd.elf.dir/Scan/MatrixARM/matrix_scan.c.o
                0x000000001fff92a0                matrixDebugMode
 *fill*         0x000000001fff92a1        0x1 
 .bss.matrixDebugStateCounter
                0x000000001fff92a2        0x2 CMakeFiles/kiibohd.elf.dir/Scan/MatrixARM/matrix_scan.c.o
                0x000000001fff92a2                matrixDebugStateCounter
 .bss.LCD_layerStack_prevSize
                0x000000001fff92a4        0x2 CMakeFiles/kiibohd.elf.dir/Scan/STLcd/lcd_scan.c.o
                0x000000001fff92a4                LCD_layerStack_prevSize
 .bss.LCD_layerStack_prevTop
                0x000000001fff92a6        0x2 CMakeFiles/kiibohd.elf.dir/Scan/STLcd/lcd_scan.c.o
                0x000000001fff92a6                LCD_layerStack_prevTop
 .bss.Connect_lastCheck
                0x000000001fff92a8        0x4 CMakeFiles/kiibohd.elf.dir/Scan/UARTConnect/connect_scan.c.o
                0x000000001fff92a8                Connect_lastCheck
 .bss.Connect_cableOkMaster
                0x000000001fff92ac        0x1 CMakeFiles/kiibohd.elf.dir/Scan/UARTConnect/connect_scan.c.o
                0x000000001fff92ac                Connect_cableOkMaster
 .bss.uarts_configured
                0x000000001fff92ad        0x1 CMakeFiles/kiibohd.elf.dir/Scan/UARTConnect/connect_scan.c.o
                0x000000001fff92ad                uarts_configured
 .bss.Connect_baudFine
                0x000000001fff92ae        0x2 CMakeFiles/kiibohd.elf.dir/Scan/UARTConnect/connect_scan.c.o
                0x000000001fff92ae                Connect_baudFine
 .bss.Connect_cableFaultsSlave
                0x000000001fff92b0        0x4 CMakeFiles/kiibohd.elf.dir/Scan/UARTConnect/connect_scan.c.o
                0x000000001fff92b0                Connect_cableFaultsSlave
 .bss.Connect_cableChecksMaster
                0x000000001fff92b4        0x4 CMakeFiles/kiibohd.elf.dir/Scan/UARTConnect/connect_scan.c.o
                0x000000001fff92b4                Connect_cableChecksMaster
 .bss.Connect_cableFaultsMaster
                0x000000001fff92b8        0x4 CMakeFiles/kiibohd.elf.dir/Scan/UARTConnect/connect_scan.c.o
                0x000000001fff92b8                Connect_cableFaultsMaster
 .bss.Connect_maxId
                0x000000001fff92bc        0x1 CMakeFiles/kiibohd.elf.dir/Scan/UARTConnect/connect_scan.c.o
                0x000000001fff92bc                Connect_maxId
 .bss.Connect_debug
                0x000000001fff92bd        0x1 CMakeFiles/kiibohd.elf.dir/Scan/UARTConnect/connect_scan.c.o
                0x000000001fff92bd                Connect_debug
 *fill*         0x000000001fff92be        0x2 
 .bss.Connect_cableChecksSlave
                0x000000001fff92c0        0x4 CMakeFiles/kiibohd.elf.dir/Scan/UARTConnect/connect_scan.c.o
                0x000000001fff92c0                Connect_cableChecksSlave
 .bss.Connect_cableOkSlave
                0x000000001fff92c4        0x1 CMakeFiles/kiibohd.elf.dir/Scan/UARTConnect/connect_scan.c.o
                0x000000001fff92c4                Connect_cableOkSlave
 .bss.Connect_override
                0x000000001fff92c5        0x1 CMakeFiles/kiibohd.elf.dir/Scan/UARTConnect/connect_scan.c.o
                0x000000001fff92c5                Connect_override
 .bss.Connect_master
                0x000000001fff92c6        0x1 CMakeFiles/kiibohd.elf.dir/Scan/UARTConnect/connect_scan.c.o
                0x000000001fff92c6                Connect_master
 *fill*         0x000000001fff92c7        0x1 
 .bss.Scan_scanCount
                0x000000001fff92c8        0x2 CMakeFiles/kiibohd.elf.dir/Scan/MDErgo1/scan_loop.c.o
                0x000000001fff92c8                Scan_scanCount
 .bss.macroStepCounter
                0x000000001fff92ca        0x2 CMakeFiles/kiibohd.elf.dir/Macro/PartialMap/macro.c.o
                0x000000001fff92ca                macroStepCounter
 .bss.macroLayerIndexStackSize
                0x000000001fff92cc        0x2 CMakeFiles/kiibohd.elf.dir/Macro/PartialMap/macro.c.o
                0x000000001fff92cc                macroLayerIndexStackSize
 .bss.macroTriggerListBufferSize
                0x000000001fff92ce        0x1 CMakeFiles/kiibohd.elf.dir/Macro/PartialMap/macro.c.o
                0x000000001fff92ce                macroTriggerListBufferSize
 .bss.macroPauseMode
                0x000000001fff92cf        0x1 CMakeFiles/kiibohd.elf.dir/Macro/PartialMap/macro.c.o
                0x000000001fff92cf                macroPauseMode
 .bss.macroTriggerMacroPendingList
                0x000000001fff92d0      0x11a CMakeFiles/kiibohd.elf.dir/Macro/PartialMap/macro.c.o
                0x000000001fff92d0                macroTriggerMacroPendingList
 .bss.macroLayerIndexStack
                0x000000001fff93ea        0xa CMakeFiles/kiibohd.elf.dir/Macro/PartialMap/macro.c.o
                0x000000001fff93ea                macroLayerIndexStack
 .bss.macroInterconnectCacheSize
                0x000000001fff93f4        0x1 CMakeFiles/kiibohd.elf.dir/Macro/PartialMap/macro.c.o
                0x000000001fff93f4                macroInterconnectCacheSize
 *fill*         0x000000001fff93f5        0x1 
 .bss.macroResultMacroPendingListSize
                0x000000001fff93f6        0x2 CMakeFiles/kiibohd.elf.dir/Macro/PartialMap/macro.c.o
                0x000000001fff93f6                macroResultMacroPendingListSize
 .bss.layerDebugMode
                0x000000001fff93f8        0x1 CMakeFiles/kiibohd.elf.dir/Macro/PartialMap/macro.c.o
                0x000000001fff93f8                layerDebugMode
 *fill*         0x000000001fff93f9        0x1 
 .bss.macroTriggerMacroPendingListSize
                0x000000001fff93fa        0x2 CMakeFiles/kiibohd.elf.dir/Macro/PartialMap/macro.c.o
                0x000000001fff93fa                macroTriggerMacroPendingListSize
 .bss.macroDebugMode
                0x000000001fff93fc        0x1 CMakeFiles/kiibohd.elf.dir/Macro/PartialMap/macro.c.o
                0x000000001fff93fc                macroDebugMode
 *fill*         0x000000001fff93fd        0x1 
 .bss.macroResultMacroPendingList
                0x000000001fff93fe       0xe0 CMakeFiles/kiibohd.elf.dir/Macro/PartialMap/macro.c.o
                0x000000001fff93fe                macroResultMacroPendingList
 .bss.USBKeys_LEDs
                0x000000001fff94de        0x1 CMakeFiles/kiibohd.elf.dir/Output/pjrcUSB/output_com.c.o
                0x000000001fff94de                USBKeys_LEDs
 .bss.USBKeys_Modifiers
                0x000000001fff94df        0x1 CMakeFiles/kiibohd.elf.dir/Output/pjrcUSB/output_com.c.o
                0x000000001fff94df                USBKeys_Modifiers
 .bss.USBKeys_Changed
                0x000000001fff94e0        0x1 CMakeFiles/kiibohd.elf.dir/Output/pjrcUSB/output_com.c.o
                0x000000001fff94e0                USBKeys_Changed
 .bss.USBKeys_Idle_Count
                0x000000001fff94e1        0x1 CMakeFiles/kiibohd.elf.dir/Output/pjrcUSB/output_com.c.o
                0x000000001fff94e1                USBKeys_Idle_Count
 .bss.Output_DebugMode
                0x000000001fff94e2        0x1 CMakeFiles/kiibohd.elf.dir/Output/pjrcUSB/output_com.c.o
                0x000000001fff94e2                Output_DebugMode
 .bss.USBKeys_Sent
                0x000000001fff94e3        0x1 CMakeFiles/kiibohd.elf.dir/Output/pjrcUSB/output_com.c.o
                0x000000001fff94e3                USBKeys_Sent
 .bss.USBKeys_SentCLI
                0x000000001fff94e4        0x1 CMakeFiles/kiibohd.elf.dir/Output/pjrcUSB/output_com.c.o
                0x000000001fff94e4                USBKeys_SentCLI
 .bss.Output_Available
                0x000000001fff94e5        0x1 CMakeFiles/kiibohd.elf.dir/Output/pjrcUSB/output_com.c.o
                0x000000001fff94e5                Output_Available
 .bss.USBKeys_ModifiersCLI
                0x000000001fff94e6        0x1 CMakeFiles/kiibohd.elf.dir/Output/pjrcUSB/output_com.c.o
                0x000000001fff94e6                USBKeys_ModifiersCLI
 .bss.usb_debug_descriptor
                0x000000001fff94e7        0x1 CMakeFiles/kiibohd.elf.dir/Output/pjrcUSB/arm/usb_desc.c.o
 .bss.device_qualifier_descriptor
                0x000000001fff94e8        0x1 CMakeFiles/kiibohd.elf.dir/Output/pjrcUSB/arm/usb_desc.c.o
 *fill*         0x000000001fff94e9        0x3 
 .bss.ep0_tx_ptr
                0x000000001fff94ec        0x4 CMakeFiles/kiibohd.elf.dir/Output/pjrcUSB/arm/usb_dev.c.o
 .bss.rx_last   0x000000001fff94f0       0x20 CMakeFiles/kiibohd.elf.dir/Output/pjrcUSB/arm/usb_dev.c.o
 .bss.tx_state  0x000000001fff9510        0x8 CMakeFiles/kiibohd.elf.dir/Output/pjrcUSB/arm/usb_dev.c.o
 .bss.ep0_rx0_buf
                0x000000001fff9518       0x40 CMakeFiles/kiibohd.elf.dir/Output/pjrcUSB/arm/usb_dev.c.o
 .bss.rx_first  0x000000001fff9558       0x20 CMakeFiles/kiibohd.elf.dir/Output/pjrcUSB/arm/usb_dev.c.o
 .bss.ep0_tx_bdt_bank
                0x000000001fff9578        0x1 CMakeFiles/kiibohd.elf.dir/Output/pjrcUSB/arm/usb_dev.c.o
 .bss.usb_reboot_timer
                0x000000001fff9579        0x1 CMakeFiles/kiibohd.elf.dir/Output/pjrcUSB/arm/usb_dev.c.o
                0x000000001fff9579                usb_reboot_timer
 *fill*         0x000000001fff957a        0x2 
 .bss.ep0_rx1_buf
                0x000000001fff957c       0x40 CMakeFiles/kiibohd.elf.dir/Output/pjrcUSB/arm/usb_dev.c.o
 .bss.tx_first  0x000000001fff95bc       0x20 CMakeFiles/kiibohd.elf.dir/Output/pjrcUSB/arm/usb_dev.c.o
 .bss.tx_last   0x000000001fff95dc       0x20 CMakeFiles/kiibohd.elf.dir/Output/pjrcUSB/arm/usb_dev.c.o
 .bss.setup     0x000000001fff95fc        0x8 CMakeFiles/kiibohd.elf.dir/Output/pjrcUSB/arm/usb_dev.c.o
 .bss.ep0_tx_len
                0x000000001fff9604        0x2 CMakeFiles/kiibohd.elf.dir/Output/pjrcUSB/arm/usb_dev.c.o
 .bss.usb_rx_memory_needed
                0x000000001fff9606        0x1 CMakeFiles/kiibohd.elf.dir/Output/pjrcUSB/arm/usb_dev.c.o
                0x000000001fff9606                usb_rx_memory_needed
 .bss.reply_buffer
                0x000000001fff9607        0x8 CMakeFiles/kiibohd.elf.dir/Output/pjrcUSB/arm/usb_dev.c.o
 .bss.usb_configuration
                0x000000001fff960f        0x1 CMakeFiles/kiibohd.elf.dir/Output/pjrcUSB/arm/usb_dev.c.o
                0x000000001fff960f                usb_configuration
 .bss.ep0_tx_data_toggle
                0x000000001fff9610        0x1 CMakeFiles/kiibohd.elf.dir/Output/pjrcUSB/arm/usb_dev.c.o
 .bss.transmit_previous_timeout
                0x000000001fff9611        0x1 CMakeFiles/kiibohd.elf.dir/Output/pjrcUSB/arm/usb_keyboard.c.o
 .bss.usb_cdc_transmit_flush_timer
                0x000000001fff9612        0x1 CMakeFiles/kiibohd.elf.dir/Output/pjrcUSB/arm/usb_serial.c.o
                0x000000001fff9612                usb_cdc_transmit_flush_timer
 .bss.tx_noautoflush
                0x000000001fff9613        0x1 CMakeFiles/kiibohd.elf.dir/Output/pjrcUSB/arm/usb_serial.c.o
 .bss.tx_packet
                0x000000001fff9614        0x4 CMakeFiles/kiibohd.elf.dir/Output/pjrcUSB/arm/usb_serial.c.o
 .bss.transmit_previous_timeout
                0x000000001fff9618        0x1 CMakeFiles/kiibohd.elf.dir/Output/pjrcUSB/arm/usb_serial.c.o
 *fill*         0x000000001fff9619        0x3 
 .bss.rx_packet
                0x000000001fff961c        0x4 CMakeFiles/kiibohd.elf.dir/Output/pjrcUSB/arm/usb_serial.c.o
 .bss.usb_cdc_line_rtsdtr
                0x000000001fff9620        0x1 CMakeFiles/kiibohd.elf.dir/Output/pjrcUSB/arm/usb_serial.c.o
                0x000000001fff9620                usb_cdc_line_rtsdtr
 *(COMMON)
 *fill*         0x000000001fff9621        0x3 
 COMMON         0x000000001fff9624      0x4a9 CMakeFiles/kiibohd.elf.dir/main.c.o
                0x000000001fff9624                CLIHexDebugMode
                0x000000001fff9625                CLIHistoryCurrent
                0x000000001fff9626                CLILEDState
                0x000000001fff9627                CLIDictionariesUsed
                0x000000001fff9628                CLIHistoryBuffer
                0x000000001fff9a10                CLILineBuffer
                0x000000001fff9a75                CLIHistoryHead
                0x000000001fff9a78                CLIDict
                0x000000001fff9aa0                CLIHistoryTail
                0x000000001fff9aa4                CLIDictNames
                0x000000001fff9acc                CLILineBufferCurrent
 COMMON         0x000000001fff9acd      0x2ea CMakeFiles/kiibohd.elf.dir/Scan/ISSILed/led_scan.c.o
                0x000000001fff9acd                I2C_RxBufferPtr
                0x000000001fff9bf9                LED_pageBuffer
                0x000000001fff9c8b                I2C_TxBufferPtr
 COMMON         0x000000001fff9db7      0x13b CMakeFiles/kiibohd.elf.dir/Scan/MatrixARM/matrix_scan.c.o
                0x000000001fff9db7                Matrix_scanArray
 COMMON         0x000000001fff9ef2      0x23a CMakeFiles/kiibohd.elf.dir/Scan/UARTConnect/connect_scan.c.o
                0x000000001fff9ef2                uart_tx_buf
                0x000000001fff9ff8                Connect_receive_RemoteCapabilityBuffer
                0x000000001fff9ffe                uart_tx_status
                0x000000001fffa002                Connect_receive_RemoteCapabilityArgs
                0x000000001fffa01b                Connect_receive_ScanCodeDeviceId
                0x000000001fffa01c                uart_rx_status
                0x000000001fffa024                uart_rx_buf
                0x000000001fffa128                Connect_receive_ScanCodeBuffer
                0x000000001fffa12b                Connect_receive_ScanCodeBufferPos
 COMMON         0x000000001fffa12c      0x4df CMakeFiles/kiibohd.elf.dir/Macro/PartialMap/macro.c.o
                0x000000001fffa12c                Macro_rotationLayer
                0x000000001fffa12e                macroTriggerListBuffer
                0x000000001fffa239                ResultMacroRecordList
                0x000000001fffa389                LayerState
                0x000000001fffa38d                macroTriggerListLayerCache
                0x000000001fffa3e6                macroInterconnectCache
                0x000000001fffa4f1                TriggerMacroRecordList
 *fill*         0x000000001fffa60b        0x1 
 COMMON         0x000000001fffa60c       0x3a CMakeFiles/kiibohd.elf.dir/Output/pjrcUSB/output_com.c.o
                0x000000001fffa60c                USBKeys_SysCtrl
                0x000000001fffa60d                USBKeys_Keys
                0x000000001fffa628                USBKeys_KeysCLI
                0x000000001fffa644                USBKeys_ConsCtrl
 COMMON         0x000000001fffa646       0x10 CMakeFiles/kiibohd.elf.dir/Output/pjrcUSB/arm/usb_dev.c.o
                0x000000001fffa646                usb_rx_byte_count_data
                0x000000001fffa658                . = ALIGN (0x4)
 *fill*         0x000000001fffa656        0x2 
                0x000000001fffa658                _ebss = .
                0x000000001fffa658                __bss_end = .
                0x0000000020008000                _estack = (ORIGIN (RAM) + 0x10000)
OUTPUT(kiibohd.elf elf32-littlearm)

.debug_info     0x0000000000000000    0x10bf8
 .debug_info    0x0000000000000000      0x2cd CMakeFiles/kiibohd.elf.dir/main.c.o
 .debug_info    0x00000000000002cd      0x63f CMakeFiles/kiibohd.elf.dir/Lib/mk20dx.c.o
 .debug_info    0x000000000000090c      0x145 CMakeFiles/kiibohd.elf.dir/Lib/delay.c.o
 .debug_info    0x0000000000000a51     0x19f7 CMakeFiles/kiibohd.elf.dir/Scan/ISSILed/led_scan.c.o
 .debug_info    0x0000000000002448      0xd84 CMakeFiles/kiibohd.elf.dir/Scan/MatrixARM/matrix_scan.c.o
 .debug_info    0x00000000000031cc     0x1176 CMakeFiles/kiibohd.elf.dir/Scan/STLcd/lcd_scan.c.o
 .debug_info    0x0000000000004342     0x2482 CMakeFiles/kiibohd.elf.dir/Scan/UARTConnect/connect_scan.c.o
 .debug_info    0x00000000000067c4      0x39e CMakeFiles/kiibohd.elf.dir/Scan/MDErgo1/scan_loop.c.o
 .debug_info    0x0000000000006b62     0x5cea CMakeFiles/kiibohd.elf.dir/Macro/PartialMap/macro.c.o
 .debug_info    0x000000000000c84c      0xd92 CMakeFiles/kiibohd.elf.dir/Output/pjrcUSB/output_com.c.o
 .debug_info    0x000000000000d5de      0x39c CMakeFiles/kiibohd.elf.dir/Output/pjrcUSB/arm/usb_desc.c.o
 .debug_info    0x000000000000d97a      0xb55 CMakeFiles/kiibohd.elf.dir/Output/pjrcUSB/arm/usb_dev.c.o
 .debug_info    0x000000000000e4cf      0x6b1 CMakeFiles/kiibohd.elf.dir/Output/pjrcUSB/arm/usb_keyboard.c.o
 .debug_info    0x000000000000eb80      0x241 CMakeFiles/kiibohd.elf.dir/Output/pjrcUSB/arm/usb_mem.c.o
 .debug_info    0x000000000000edc1      0x5eb CMakeFiles/kiibohd.elf.dir/Output/pjrcUSB/arm/usb_serial.c.o
 .debug_info    0x000000000000f3ac     0x104b CMakeFiles/kiibohd.elf.dir/Debug/cli/cli.c.o
 .debug_info    0x00000000000103f7       0xd2 CMakeFiles/kiibohd.elf.dir/Debug/led/led.c.o
 .debug_info    0x00000000000104c9      0x72f CMakeFiles/kiibohd.elf.dir/Debug/print/print.c.o

.debug_abbrev   0x0000000000000000     0x2954
 .debug_abbrev  0x0000000000000000      0x109 CMakeFiles/kiibohd.elf.dir/main.c.o
 .debug_abbrev  0x0000000000000109      0x202 CMakeFiles/kiibohd.elf.dir/Lib/mk20dx.c.o
 .debug_abbrev  0x000000000000030b       0xd8 CMakeFiles/kiibohd.elf.dir/Lib/delay.c.o
 .debug_abbrev  0x00000000000003e3      0x3cb CMakeFiles/kiibohd.elf.dir/Scan/ISSILed/led_scan.c.o
 .debug_abbrev  0x00000000000007ae      0x2d6 CMakeFiles/kiibohd.elf.dir/Scan/MatrixARM/matrix_scan.c.o
 .debug_abbrev  0x0000000000000a84      0x3c6 CMakeFiles/kiibohd.elf.dir/Scan/STLcd/lcd_scan.c.o
 .debug_abbrev  0x0000000000000e4a      0x39a CMakeFiles/kiibohd.elf.dir/Scan/UARTConnect/connect_scan.c.o
 .debug_abbrev  0x00000000000011e4      0x150 CMakeFiles/kiibohd.elf.dir/Scan/MDErgo1/scan_loop.c.o
 .debug_abbrev  0x0000000000001334      0x3b4 CMakeFiles/kiibohd.elf.dir/Macro/PartialMap/macro.c.o
 .debug_abbrev  0x00000000000016e8      0x2d2 CMakeFiles/kiibohd.elf.dir/Output/pjrcUSB/output_com.c.o
 .debug_abbrev  0x00000000000019ba       0xc8 CMakeFiles/kiibohd.elf.dir/Output/pjrcUSB/arm/usb_desc.c.o
 .debug_abbrev  0x0000000000001a82      0x3b9 CMakeFiles/kiibohd.elf.dir/Output/pjrcUSB/arm/usb_dev.c.o
 .debug_abbrev  0x0000000000001e3b      0x1aa CMakeFiles/kiibohd.elf.dir/Output/pjrcUSB/arm/usb_keyboard.c.o
 .debug_abbrev  0x0000000000001fe5      0x165 CMakeFiles/kiibohd.elf.dir/Output/pjrcUSB/arm/usb_mem.c.o
 .debug_abbrev  0x000000000000214a      0x27b CMakeFiles/kiibohd.elf.dir/Output/pjrcUSB/arm/usb_serial.c.o
 .debug_abbrev  0x00000000000023c5      0x338 CMakeFiles/kiibohd.elf.dir/Debug/cli/cli.c.o
 .debug_abbrev  0x00000000000026fd       0x79 CMakeFiles/kiibohd.elf.dir/Debug/led/led.c.o
 .debug_abbrev  0x0000000000002776      0x1de CMakeFiles/kiibohd.elf.dir/Debug/print/print.c.o

.debug_aranges  0x0000000000000000      0x7f0
 .debug_aranges
                0x0000000000000000       0x20 CMakeFiles/kiibohd.elf.dir/main.c.o
 .debug_aranges
                0x0000000000000020       0x88 CMakeFiles/kiibohd.elf.dir/Lib/mk20dx.c.o
 .debug_aranges
                0x00000000000000a8       0x30 CMakeFiles/kiibohd.elf.dir/Lib/delay.c.o
 .debug_aranges
                0x00000000000000d8       0xc0 CMakeFiles/kiibohd.elf.dir/Scan/ISSILed/led_scan.c.o
 .debug_aranges
                0x0000000000000198       0x48 CMakeFiles/kiibohd.elf.dir/Scan/MatrixARM/matrix_scan.c.o
 .debug_aranges
                0x00000000000001e0       0x88 CMakeFiles/kiibohd.elf.dir/Scan/STLcd/lcd_scan.c.o
 .debug_aranges
                0x0000000000000268       0xf8 CMakeFiles/kiibohd.elf.dir/Scan/UARTConnect/connect_scan.c.o
 .debug_aranges
                0x0000000000000360       0x38 CMakeFiles/kiibohd.elf.dir/Scan/MDErgo1/scan_loop.c.o
 .debug_aranges
                0x0000000000000398      0x100 CMakeFiles/kiibohd.elf.dir/Macro/PartialMap/macro.c.o
 .debug_aranges
                0x0000000000000498       0xc8 CMakeFiles/kiibohd.elf.dir/Output/pjrcUSB/output_com.c.o
 .debug_aranges
                0x0000000000000560       0x18 CMakeFiles/kiibohd.elf.dir/Output/pjrcUSB/arm/usb_desc.c.o
 .debug_aranges
                0x0000000000000578       0x68 CMakeFiles/kiibohd.elf.dir/Output/pjrcUSB/arm/usb_dev.c.o
 .debug_aranges
                0x00000000000005e0       0x20 CMakeFiles/kiibohd.elf.dir/Output/pjrcUSB/arm/usb_keyboard.c.o
 .debug_aranges
                0x0000000000000600       0x28 CMakeFiles/kiibohd.elf.dir/Output/pjrcUSB/arm/usb_mem.c.o
 .debug_aranges
                0x0000000000000628       0x60 CMakeFiles/kiibohd.elf.dir/Output/pjrcUSB/arm/usb_serial.c.o
 .debug_aranges
                0x0000000000000688       0xa8 CMakeFiles/kiibohd.elf.dir/Debug/cli/cli.c.o
 .debug_aranges
                0x0000000000000730       0x28 CMakeFiles/kiibohd.elf.dir/Debug/led/led.c.o
 .debug_aranges
                0x0000000000000758       0x98 CMakeFiles/kiibohd.elf.dir/Debug/print/print.c.o

.debug_ranges   0x0000000000000000      0xbc0
 .debug_ranges  0x0000000000000000       0x10 CMakeFiles/kiibohd.elf.dir/main.c.o
 .debug_ranges  0x0000000000000010       0x78 CMakeFiles/kiibohd.elf.dir/Lib/mk20dx.c.o
 .debug_ranges  0x0000000000000088       0x20 CMakeFiles/kiibohd.elf.dir/Lib/delay.c.o
 .debug_ranges  0x00000000000000a8      0x110 CMakeFiles/kiibohd.elf.dir/Scan/ISSILed/led_scan.c.o
 .debug_ranges  0x00000000000001b8       0x50 CMakeFiles/kiibohd.elf.dir/Scan/MatrixARM/matrix_scan.c.o
 .debug_ranges  0x0000000000000208       0x90 CMakeFiles/kiibohd.elf.dir/Scan/STLcd/lcd_scan.c.o
 .debug_ranges  0x0000000000000298      0x1e0 CMakeFiles/kiibohd.elf.dir/Scan/UARTConnect/connect_scan.c.o
 .debug_ranges  0x0000000000000478       0x28 CMakeFiles/kiibohd.elf.dir/Scan/MDErgo1/scan_loop.c.o
 .debug_ranges  0x00000000000004a0      0x358 CMakeFiles/kiibohd.elf.dir/Macro/PartialMap/macro.c.o
 .debug_ranges  0x00000000000007f8       0xb8 CMakeFiles/kiibohd.elf.dir/Output/pjrcUSB/output_com.c.o
 .debug_ranges  0x00000000000008b0       0x78 CMakeFiles/kiibohd.elf.dir/Output/pjrcUSB/arm/usb_dev.c.o
 .debug_ranges  0x0000000000000928       0x10 CMakeFiles/kiibohd.elf.dir/Output/pjrcUSB/arm/usb_keyboard.c.o
 .debug_ranges  0x0000000000000938       0x18 CMakeFiles/kiibohd.elf.dir/Output/pjrcUSB/arm/usb_mem.c.o
 .debug_ranges  0x0000000000000950       0x68 CMakeFiles/kiibohd.elf.dir/Output/pjrcUSB/arm/usb_serial.c.o
 .debug_ranges  0x00000000000009b8      0x128 CMakeFiles/kiibohd.elf.dir/Debug/cli/cli.c.o
 .debug_ranges  0x0000000000000ae0       0x18 CMakeFiles/kiibohd.elf.dir/Debug/led/led.c.o
 .debug_ranges  0x0000000000000af8       0xc8 CMakeFiles/kiibohd.elf.dir/Debug/print/print.c.o

.debug_macro    0x0000000000000000     0x979c
 .debug_macro   0x0000000000000000       0x8d CMakeFiles/kiibohd.elf.dir/main.c.o
 .debug_macro   0x000000000000008d      0x868 CMakeFiles/kiibohd.elf.dir/main.c.o
 .debug_macro   0x00000000000008f5       0x16 CMakeFiles/kiibohd.elf.dir/main.c.o
 .debug_macro   0x000000000000090b       0x16 CMakeFiles/kiibohd.elf.dir/main.c.o
 .debug_macro   0x0000000000000921       0x44 CMakeFiles/kiibohd.elf.dir/main.c.o
 .debug_macro   0x0000000000000965      0x209 CMakeFiles/kiibohd.elf.dir/main.c.o
 .debug_macro   0x0000000000000b6e     0x301e CMakeFiles/kiibohd.elf.dir/main.c.o
 .debug_macro   0x0000000000003b8c       0x10 CMakeFiles/kiibohd.elf.dir/main.c.o
 .debug_macro   0x0000000000003b9c       0x76 CMakeFiles/kiibohd.elf.dir/main.c.o
 .debug_macro   0x0000000000003c12       0x10 CMakeFiles/kiibohd.elf.dir/main.c.o
 .debug_macro   0x0000000000003c22       0x3a CMakeFiles/kiibohd.elf.dir/main.c.o
 .debug_macro   0x0000000000003c5c       0x9a CMakeFiles/kiibohd.elf.dir/main.c.o
 .debug_macro   0x0000000000003cf6       0x66 CMakeFiles/kiibohd.elf.dir/Lib/mk20dx.c.o
 .debug_macro   0x0000000000003d5c     0x3030 CMakeFiles/kiibohd.elf.dir/Lib/mk20dx.c.o
 .debug_macro   0x0000000000006d8c       0x54 CMakeFiles/kiibohd.elf.dir/Lib/delay.c.o
 .debug_macro   0x0000000000006de0       0x10 CMakeFiles/kiibohd.elf.dir/Lib/delay.c.o
 .debug_macro   0x0000000000006df0       0xe3 CMakeFiles/kiibohd.elf.dir/Scan/ISSILed/led_scan.c.o
 .debug_macro   0x0000000000006ed3       0x76 CMakeFiles/kiibohd.elf.dir/Scan/ISSILed/led_scan.c.o
 .debug_macro   0x0000000000006f49      0x11b CMakeFiles/kiibohd.elf.dir/Scan/ISSILed/led_scan.c.o
 .debug_macro   0x0000000000007064     0x1217 CMakeFiles/kiibohd.elf.dir/Scan/ISSILed/led_scan.c.o
 .debug_macro   0x000000000000827b       0x57 CMakeFiles/kiibohd.elf.dir/Scan/ISSILed/led_scan.c.o
 .debug_macro   0x00000000000082d2       0xb6 CMakeFiles/kiibohd.elf.dir/Scan/MatrixARM/matrix_scan.c.o
 .debug_macro   0x0000000000008388       0x1c CMakeFiles/kiibohd.elf.dir/Scan/MatrixARM/matrix_scan.c.o
 .debug_macro   0x00000000000083a4       0xd5 CMakeFiles/kiibohd.elf.dir/Scan/STLcd/lcd_scan.c.o
 .debug_macro   0x0000000000008479       0xf7 CMakeFiles/kiibohd.elf.dir/Scan/UARTConnect/connect_scan.c.o
 .debug_macro   0x0000000000008570       0xcb CMakeFiles/kiibohd.elf.dir/Scan/MDErgo1/scan_loop.c.o
 .debug_macro   0x000000000000863b      0x117 CMakeFiles/kiibohd.elf.dir/Scan/MDErgo1/scan_loop.c.o
 .debug_macro   0x0000000000008752       0xc4 CMakeFiles/kiibohd.elf.dir/Macro/PartialMap/macro.c.o
 .debug_macro   0x0000000000008816       0xe0 CMakeFiles/kiibohd.elf.dir/Output/pjrcUSB/output_com.c.o
 .debug_macro   0x00000000000088f6      0x16d CMakeFiles/kiibohd.elf.dir/Output/pjrcUSB/output_com.c.o
 .debug_macro   0x0000000000008a63      0x178 CMakeFiles/kiibohd.elf.dir/Output/pjrcUSB/output_com.c.o
 .debug_macro   0x0000000000008bdb       0x10 CMakeFiles/kiibohd.elf.dir/Output/pjrcUSB/output_com.c.o
 .debug_macro   0x0000000000008beb       0x35 CMakeFiles/kiibohd.elf.dir/Output/pjrcUSB/output_com.c.o
 .debug_macro   0x0000000000008c20      0x452 CMakeFiles/kiibohd.elf.dir/Output/pjrcUSB/output_com.c.o
 .debug_macro   0x0000000000009072       0x22 CMakeFiles/kiibohd.elf.dir/Output/pjrcUSB/output_com.c.o
 .debug_macro   0x0000000000009094       0x89 CMakeFiles/kiibohd.elf.dir/Output/pjrcUSB/arm/usb_desc.c.o
 .debug_macro   0x000000000000911d      0x17f CMakeFiles/kiibohd.elf.dir/Output/pjrcUSB/arm/usb_dev.c.o
 .debug_macro   0x000000000000929c      0x161 CMakeFiles/kiibohd.elf.dir/Output/pjrcUSB/arm/usb_keyboard.c.o
 .debug_macro   0x00000000000093fd       0x8f CMakeFiles/kiibohd.elf.dir/Output/pjrcUSB/arm/usb_mem.c.o
 .debug_macro   0x000000000000948c      0x163 CMakeFiles/kiibohd.elf.dir/Output/pjrcUSB/arm/usb_serial.c.o
 .debug_macro   0x00000000000095ef       0x8e CMakeFiles/kiibohd.elf.dir/Debug/cli/cli.c.o
 .debug_macro   0x000000000000967d       0x61 CMakeFiles/kiibohd.elf.dir/Debug/led/led.c.o
 .debug_macro   0x00000000000096de       0x66 CMakeFiles/kiibohd.elf.dir/Debug/print/print.c.o
 .debug_macro   0x0000000000009744       0x58 CMakeFiles/kiibohd.elf.dir/Debug/print/print.c.o

.debug_line     0x0000000000000000     0x49ba
 .debug_line    0x0000000000000000      0x25e CMakeFiles/kiibohd.elf.dir/main.c.o
 .debug_line    0x000000000000025e      0x322 CMakeFiles/kiibohd.elf.dir/Lib/mk20dx.c.o
 .debug_line    0x0000000000000580      0x13d CMakeFiles/kiibohd.elf.dir/Lib/delay.c.o
 .debug_line    0x00000000000006bd      0x69c CMakeFiles/kiibohd.elf.dir/Scan/ISSILed/led_scan.c.o
 .debug_line    0x0000000000000d59      0x445 CMakeFiles/kiibohd.elf.dir/Scan/MatrixARM/matrix_scan.c.o
 .debug_line    0x000000000000119e      0x521 CMakeFiles/kiibohd.elf.dir/Scan/STLcd/lcd_scan.c.o
 .debug_line    0x00000000000016bf      0x837 CMakeFiles/kiibohd.elf.dir/Scan/UARTConnect/connect_scan.c.o
 .debug_line    0x0000000000001ef6      0x3af CMakeFiles/kiibohd.elf.dir/Scan/MDErgo1/scan_loop.c.o
 .debug_line    0x00000000000022a5      0x9dd CMakeFiles/kiibohd.elf.dir/Macro/PartialMap/macro.c.o
 .debug_line    0x0000000000002c82      0x569 CMakeFiles/kiibohd.elf.dir/Output/pjrcUSB/output_com.c.o
 .debug_line    0x00000000000031eb      0x15f CMakeFiles/kiibohd.elf.dir/Output/pjrcUSB/arm/usb_desc.c.o
 .debug_line    0x000000000000334a      0x4ce CMakeFiles/kiibohd.elf.dir/Output/pjrcUSB/arm/usb_dev.c.o
 .debug_line    0x0000000000003818      0x315 CMakeFiles/kiibohd.elf.dir/Output/pjrcUSB/arm/usb_keyboard.c.o
 .debug_line    0x0000000000003b2d      0x1d6 CMakeFiles/kiibohd.elf.dir/Output/pjrcUSB/arm/usb_mem.c.o
 .debug_line    0x0000000000003d03      0x374 CMakeFiles/kiibohd.elf.dir/Output/pjrcUSB/arm/usb_serial.c.o
 .debug_line    0x0000000000004077      0x494 CMakeFiles/kiibohd.elf.dir/Debug/cli/cli.c.o
 .debug_line    0x000000000000450b      0x145 CMakeFiles/kiibohd.elf.dir/Debug/led/led.c.o
 .debug_line    0x0000000000004650      0x36a CMakeFiles/kiibohd.elf.dir/Debug/print/print.c.o

.debug_str      0x0000000000000000    0x2444d
 .debug_str     0x0000000000000000    0x140bd CMakeFiles/kiibohd.elf.dir/main.c.o
                                      0x14223 (size before relaxing)
 .debug_str     0x00000000000140bd      0x1b4 CMakeFiles/kiibohd.elf.dir/Lib/mk20dx.c.o
                                      0x140b4 (size before relaxing)
 .debug_str     0x0000000000014271       0x79 CMakeFiles/kiibohd.elf.dir/Lib/delay.c.o
                                      0x1373b (size before relaxing)
 .debug_str     0x00000000000142ea     0x74d1 CMakeFiles/kiibohd.elf.dir/Scan/ISSILed/led_scan.c.o
                                      0x1b60e (size before relaxing)
 .debug_str     0x000000000001b7bb      0x506 CMakeFiles/kiibohd.elf.dir/Scan/MatrixARM/matrix_scan.c.o
                                      0x17ae4 (size before relaxing)
 .debug_str     0x000000000001bcc1      0x36e CMakeFiles/kiibohd.elf.dir/Scan/STLcd/lcd_scan.c.o
                                      0x1b412 (size before relaxing)
 .debug_str     0x000000000001c02f      0xde3 CMakeFiles/kiibohd.elf.dir/Scan/UARTConnect/connect_scan.c.o
                                      0x1bd25 (size before relaxing)
 .debug_str     0x000000000001ce12       0x66 CMakeFiles/kiibohd.elf.dir/Scan/MDErgo1/scan_loop.c.o
                                      0x1ae0e (size before relaxing)
 .debug_str     0x000000000001ce78     0x260c CMakeFiles/kiibohd.elf.dir/Macro/PartialMap/macro.c.o
                                      0x1d5d1 (size before relaxing)
 .debug_str     0x000000000001f484     0x1f42 CMakeFiles/kiibohd.elf.dir/Output/pjrcUSB/output_com.c.o
                                      0x16384 (size before relaxing)
 .debug_str     0x00000000000213c6      0x3b5 CMakeFiles/kiibohd.elf.dir/Output/pjrcUSB/arm/usb_desc.c.o
                                       0x72c9 (size before relaxing)
 .debug_str     0x000000000002177b      0x54e CMakeFiles/kiibohd.elf.dir/Output/pjrcUSB/arm/usb_dev.c.o
                                      0x18322 (size before relaxing)
 .debug_str     0x0000000000021cc9     0x221a CMakeFiles/kiibohd.elf.dir/Output/pjrcUSB/arm/usb_keyboard.c.o
                                      0x17bac (size before relaxing)
 .debug_str     0x0000000000023ee3       0x50 CMakeFiles/kiibohd.elf.dir/Output/pjrcUSB/arm/usb_mem.c.o
                                      0x14546 (size before relaxing)
 .debug_str     0x0000000000023f33       0xe2 CMakeFiles/kiibohd.elf.dir/Output/pjrcUSB/arm/usb_serial.c.o
                                      0x176d2 (size before relaxing)
 .debug_str     0x0000000000024015      0x27f CMakeFiles/kiibohd.elf.dir/Debug/cli/cli.c.o
                                      0x17844 (size before relaxing)
 .debug_str     0x0000000000024294       0x16 CMakeFiles/kiibohd.elf.dir/Debug/led/led.c.o
                                      0x1370b (size before relaxing)
 .debug_str     0x00000000000242aa      0x1a3 CMakeFiles/kiibohd.elf.dir/Debug/print/print.c.o
                                       0x395d (size before relaxing)

.comment        0x0000000000000000       0x1f
 .comment       0x0000000000000000       0x1f CMakeFiles/kiibohd.elf.dir/main.c.o
                                         0x20 (size before relaxing)
 .comment       0x0000000000000000       0x20 CMakeFiles/kiibohd.elf.dir/Lib/mk20dx.c.o
 .comment       0x0000000000000000       0x20 CMakeFiles/kiibohd.elf.dir/Lib/delay.c.o
 .comment       0x0000000000000000       0x20 CMakeFiles/kiibohd.elf.dir/Scan/ISSILed/led_scan.c.o
 .comment       0x0000000000000000       0x20 CMakeFiles/kiibohd.elf.dir/Scan/MatrixARM/matrix_scan.c.o
 .comment       0x0000000000000000       0x20 CMakeFiles/kiibohd.elf.dir/Scan/STLcd/lcd_scan.c.o
 .comment       0x0000000000000000       0x20 CMakeFiles/kiibohd.elf.dir/Scan/UARTConnect/connect_scan.c.o
 .comment       0x0000000000000000       0x20 CMakeFiles/kiibohd.elf.dir/Scan/MDErgo1/scan_loop.c.o
 .comment       0x0000000000000000       0x20 CMakeFiles/kiibohd.elf.dir/Macro/PartialMap/macro.c.o
 .comment       0x0000000000000000       0x20 CMakeFiles/kiibohd.elf.dir/Output/pjrcUSB/output_com.c.o
 .comment       0x0000000000000000       0x20 CMakeFiles/kiibohd.elf.dir/Output/pjrcUSB/arm/usb_desc.c.o
 .comment       0x0000000000000000       0x20 CMakeFiles/kiibohd.elf.dir/Output/pjrcUSB/arm/usb_dev.c.o
 .comment       0x0000000000000000       0x20 CMakeFiles/kiibohd.elf.dir/Output/pjrcUSB/arm/usb_keyboard.c.o
 .comment       0x0000000000000000       0x20 CMakeFiles/kiibohd.elf.dir/Output/pjrcUSB/arm/usb_mem.c.o
 .comment       0x0000000000000000       0x20 CMakeFiles/kiibohd.elf.dir/Output/pjrcUSB/arm/usb_serial.c.o
 .comment       0x0000000000000000       0x20 CMakeFiles/kiibohd.elf.dir/Debug/cli/cli.c.o
 .comment       0x0000000000000000       0x20 CMakeFiles/kiibohd.elf.dir/Debug/led/led.c.o
 .comment       0x0000000000000000       0x20 CMakeFiles/kiibohd.elf.dir/Debug/print/print.c.o

.ARM.attributes
                0x0000000000000000       0x33
 .ARM.attributes
                0x0000000000000000       0x33 CMakeFiles/kiibohd.elf.dir/main.c.o
 .ARM.attributes
                0x0000000000000033       0x33 CMakeFiles/kiibohd.elf.dir/Lib/mk20dx.c.o
 .ARM.attributes
                0x0000000000000066       0x33 CMakeFiles/kiibohd.elf.dir/Lib/delay.c.o
 .ARM.attributes
                0x0000000000000099       0x33 CMakeFiles/kiibohd.elf.dir/Scan/ISSILed/led_scan.c.o
 .ARM.attributes
                0x00000000000000cc       0x33 CMakeFiles/kiibohd.elf.dir/Scan/MatrixARM/matrix_scan.c.o
 .ARM.attributes
                0x00000000000000ff       0x33 CMakeFiles/kiibohd.elf.dir/Scan/STLcd/lcd_scan.c.o
 .ARM.attributes
                0x0000000000000132       0x33 CMakeFiles/kiibohd.elf.dir/Scan/UARTConnect/connect_scan.c.o
 .ARM.attributes
                0x0000000000000165       0x33 CMakeFiles/kiibohd.elf.dir/Scan/MDErgo1/scan_loop.c.o
 .ARM.attributes
                0x0000000000000198       0x33 CMakeFiles/kiibohd.elf.dir/Macro/PartialMap/macro.c.o
 .ARM.attributes
                0x00000000000001cb       0x33 CMakeFiles/kiibohd.elf.dir/Output/pjrcUSB/output_com.c.o
 .ARM.attributes
                0x00000000000001fe       0x33 CMakeFiles/kiibohd.elf.dir/Output/pjrcUSB/arm/usb_desc.c.o
 .ARM.attributes
                0x0000000000000231       0x33 CMakeFiles/kiibohd.elf.dir/Output/pjrcUSB/arm/usb_dev.c.o
 .ARM.attributes
                0x0000000000000264       0x33 CMakeFiles/kiibohd.elf.dir/Output/pjrcUSB/arm/usb_keyboard.c.o
 .ARM.attributes
                0x0000000000000297       0x33 CMakeFiles/kiibohd.elf.dir/Output/pjrcUSB/arm/usb_mem.c.o
 .ARM.attributes
                0x00000000000002ca       0x33 CMakeFiles/kiibohd.elf.dir/Output/pjrcUSB/arm/usb_serial.c.o
 .ARM.attributes
                0x00000000000002fd       0x33 CMakeFiles/kiibohd.elf.dir/Debug/cli/cli.c.o
 .ARM.attributes
                0x0000000000000330       0x33 CMakeFiles/kiibohd.elf.dir/Debug/led/led.c.o
 .ARM.attributes
                0x0000000000000363       0x33 CMakeFiles/kiibohd.elf.dir/Debug/print/print.c.o

.debug_frame    0x0000000000000000     0x1554
 .debug_frame   0x0000000000000000       0x28 CMakeFiles/kiibohd.elf.dir/main.c.o
 .debug_frame   0x0000000000000028      0x13c CMakeFiles/kiibohd.elf.dir/Lib/mk20dx.c.o
 .debug_frame   0x0000000000000164       0x4c CMakeFiles/kiibohd.elf.dir/Lib/delay.c.o
 .debug_frame   0x00000000000001b0      0x254 CMakeFiles/kiibohd.elf.dir/Scan/ISSILed/led_scan.c.o
 .debug_frame   0x0000000000000404       0xc0 CMakeFiles/kiibohd.elf.dir/Scan/MatrixARM/matrix_scan.c.o
 .debug_frame   0x00000000000004c4      0x18c CMakeFiles/kiibohd.elf.dir/Scan/STLcd/lcd_scan.c.o
 .debug_frame   0x0000000000000650      0x360 CMakeFiles/kiibohd.elf.dir/Scan/UARTConnect/connect_scan.c.o
 .debug_frame   0x00000000000009b0       0x60 CMakeFiles/kiibohd.elf.dir/Scan/MDErgo1/scan_loop.c.o
 .debug_frame   0x0000000000000a10      0x350 CMakeFiles/kiibohd.elf.dir/Macro/PartialMap/macro.c.o
 .debug_frame   0x0000000000000d60      0x1f0 CMakeFiles/kiibohd.elf.dir/Output/pjrcUSB/output_com.c.o
 .debug_frame   0x0000000000000f50       0xf0 CMakeFiles/kiibohd.elf.dir/Output/pjrcUSB/arm/usb_dev.c.o
 .debug_frame   0x0000000000001040       0x30 CMakeFiles/kiibohd.elf.dir/Output/pjrcUSB/arm/usb_keyboard.c.o
 .debug_frame   0x0000000000001070       0x30 CMakeFiles/kiibohd.elf.dir/Output/pjrcUSB/arm/usb_mem.c.o
 .debug_frame   0x00000000000010a0      0x104 CMakeFiles/kiibohd.elf.dir/Output/pjrcUSB/arm/usb_serial.c.o
 .debug_frame   0x00000000000011a4      0x1c0 CMakeFiles/kiibohd.elf.dir/Debug/cli/cli.c.o
 .debug_frame   0x0000000000001364       0x30 CMakeFiles/kiibohd.elf.dir/Debug/led/led.c.o
 .debug_frame   0x0000000000001394      0x1c0 CMakeFiles/kiibohd.elf.dir/Debug/print/print.c.o

.debug_loc      0x0000000000000000     0x70f3
 .debug_loc     0x0000000000000000      0x311 CMakeFiles/kiibohd.elf.dir/Lib/mk20dx.c.o
 .debug_loc     0x0000000000000311       0x6f CMakeFiles/kiibohd.elf.dir/Lib/delay.c.o
 .debug_loc     0x0000000000000380      0xa6d CMakeFiles/kiibohd.elf.dir/Scan/ISSILed/led_scan.c.o
 .debug_loc     0x0000000000000ded      0x4b4 CMakeFiles/kiibohd.elf.dir/Scan/MatrixARM/matrix_scan.c.o
 .debug_loc     0x00000000000012a1      0x6c9 CMakeFiles/kiibohd.elf.dir/Scan/STLcd/lcd_scan.c.o
 .debug_loc     0x000000000000196a      0xf83 CMakeFiles/kiibohd.elf.dir/Scan/UARTConnect/connect_scan.c.o
 .debug_loc     0x00000000000028ed     0x1ee4 CMakeFiles/kiibohd.elf.dir/Macro/PartialMap/macro.c.o
 .debug_loc     0x00000000000047d1      0xb0e CMakeFiles/kiibohd.elf.dir/Output/pjrcUSB/output_com.c.o
 .debug_loc     0x00000000000052df      0xa72 CMakeFiles/kiibohd.elf.dir/Output/pjrcUSB/arm/usb_dev.c.o
 .debug_loc     0x0000000000005d51      0x2b5 CMakeFiles/kiibohd.elf.dir/Output/pjrcUSB/arm/usb_keyboard.c.o
 .debug_loc     0x0000000000006006      0x10d CMakeFiles/kiibohd.elf.dir/Output/pjrcUSB/arm/usb_mem.c.o
 .debug_loc     0x0000000000006113      0x2e3 CMakeFiles/kiibohd.elf.dir/Output/pjrcUSB/arm/usb_serial.c.o
 .debug_loc     0x00000000000063f6      0x5d9 CMakeFiles/kiibohd.elf.dir/Debug/cli/cli.c.o
 .debug_loc     0x00000000000069cf      0x724 CMakeFiles/kiibohd.elf.dir/Debug/print/print.c.o

Cross Reference Table

Symbol                                            File
CLIDict                                           CMakeFiles/kiibohd.elf.dir/Debug/cli/cli.c.o
                                                  CMakeFiles/kiibohd.elf.dir/Output/pjrcUSB/output_com.c.o
                                                  CMakeFiles/kiibohd.elf.dir/Macro/PartialMap/macro.c.o
                                                  CMakeFiles/kiibohd.elf.dir/Scan/MDErgo1/scan_loop.c.o
                                                  CMakeFiles/kiibohd.elf.dir/Scan/UARTConnect/connect_scan.c.o
                                                  CMakeFiles/kiibohd.elf.dir/Scan/STLcd/lcd_scan.c.o
                                                  CMakeFiles/kiibohd.elf.dir/Scan/MatrixARM/matrix_scan.c.o
                                                  CMakeFiles/kiibohd.elf.dir/Scan/ISSILed/led_scan.c.o
                                                  CMakeFiles/kiibohd.elf.dir/main.c.o
CLIDictNames                                      CMakeFiles/kiibohd.elf.dir/Debug/cli/cli.c.o
                                                  CMakeFiles/kiibohd.elf.dir/Output/pjrcUSB/output_com.c.o
                                                  CMakeFiles/kiibohd.elf.dir/Macro/PartialMap/macro.c.o
                                                  CMakeFiles/kiibohd.elf.dir/Scan/MDErgo1/scan_loop.c.o
                                                  CMakeFiles/kiibohd.elf.dir/Scan/UARTConnect/connect_scan.c.o
                                                  CMakeFiles/kiibohd.elf.dir/Scan/STLcd/lcd_scan.c.o
                                                  CMakeFiles/kiibohd.elf.dir/Scan/MatrixARM/matrix_scan.c.o
                                                  CMakeFiles/kiibohd.elf.dir/Scan/ISSILed/led_scan.c.o
                                                  CMakeFiles/kiibohd.elf.dir/main.c.o
CLIDictionariesUsed                               CMakeFiles/kiibohd.elf.dir/Debug/cli/cli.c.o
                                                  CMakeFiles/kiibohd.elf.dir/Output/pjrcUSB/output_com.c.o
                                                  CMakeFiles/kiibohd.elf.dir/Macro/PartialMap/macro.c.o
                                                  CMakeFiles/kiibohd.elf.dir/Scan/MDErgo1/scan_loop.c.o
                                                  CMakeFiles/kiibohd.elf.dir/Scan/UARTConnect/connect_scan.c.o
                                                  CMakeFiles/kiibohd.elf.dir/Scan/STLcd/lcd_scan.c.o
                                                  CMakeFiles/kiibohd.elf.dir/Scan/MatrixARM/matrix_scan.c.o
                                                  CMakeFiles/kiibohd.elf.dir/Scan/ISSILed/led_scan.c.o
                                                  CMakeFiles/kiibohd.elf.dir/main.c.o
CLIHexDebugMode                                   CMakeFiles/kiibohd.elf.dir/Debug/cli/cli.c.o
                                                  CMakeFiles/kiibohd.elf.dir/Output/pjrcUSB/output_com.c.o
                                                  CMakeFiles/kiibohd.elf.dir/Macro/PartialMap/macro.c.o
                                                  CMakeFiles/kiibohd.elf.dir/Scan/MDErgo1/scan_loop.c.o
                                                  CMakeFiles/kiibohd.elf.dir/Scan/UARTConnect/connect_scan.c.o
                                                  CMakeFiles/kiibohd.elf.dir/Scan/STLcd/lcd_scan.c.o
                                                  CMakeFiles/kiibohd.elf.dir/Scan/MatrixARM/matrix_scan.c.o
                                                  CMakeFiles/kiibohd.elf.dir/Scan/ISSILed/led_scan.c.o
                                                  CMakeFiles/kiibohd.elf.dir/main.c.o
CLIHistoryBuffer                                  CMakeFiles/kiibohd.elf.dir/Debug/cli/cli.c.o
                                                  CMakeFiles/kiibohd.elf.dir/Output/pjrcUSB/output_com.c.o
                                                  CMakeFiles/kiibohd.elf.dir/Macro/PartialMap/macro.c.o
                                                  CMakeFiles/kiibohd.elf.dir/Scan/MDErgo1/scan_loop.c.o
                                                  CMakeFiles/kiibohd.elf.dir/Scan/UARTConnect/connect_scan.c.o
                                                  CMakeFiles/kiibohd.elf.dir/Scan/STLcd/lcd_scan.c.o
                                                  CMakeFiles/kiibohd.elf.dir/Scan/MatrixARM/matrix_scan.c.o
                                                  CMakeFiles/kiibohd.elf.dir/Scan/ISSILed/led_scan.c.o
                                                  CMakeFiles/kiibohd.elf.dir/main.c.o
CLIHistoryCurrent                                 CMakeFiles/kiibohd.elf.dir/Debug/cli/cli.c.o
                                                  CMakeFiles/kiibohd.elf.dir/Output/pjrcUSB/output_com.c.o
                                                  CMakeFiles/kiibohd.elf.dir/Macro/PartialMap/macro.c.o
                                                  CMakeFiles/kiibohd.elf.dir/Scan/MDErgo1/scan_loop.c.o
                                                  CMakeFiles/kiibohd.elf.dir/Scan/UARTConnect/connect_scan.c.o
                                                  CMakeFiles/kiibohd.elf.dir/Scan/STLcd/lcd_scan.c.o
                                                  CMakeFiles/kiibohd.elf.dir/Scan/MatrixARM/matrix_scan.c.o
                                                  CMakeFiles/kiibohd.elf.dir/Scan/ISSILed/led_scan.c.o
                                                  CMakeFiles/kiibohd.elf.dir/main.c.o
CLIHistoryHead                                    CMakeFiles/kiibohd.elf.dir/Debug/cli/cli.c.o
                                                  CMakeFiles/kiibohd.elf.dir/Output/pjrcUSB/output_com.c.o
                                                  CMakeFiles/kiibohd.elf.dir/Macro/PartialMap/macro.c.o
                                                  CMakeFiles/kiibohd.elf.dir/Scan/MDErgo1/scan_loop.c.o
                                                  CMakeFiles/kiibohd.elf.dir/Scan/UARTConnect/connect_scan.c.o
                                                  CMakeFiles/kiibohd.elf.dir/Scan/STLcd/lcd_scan.c.o
                                                  CMakeFiles/kiibohd.elf.dir/Scan/MatrixARM/matrix_scan.c.o
                                                  CMakeFiles/kiibohd.elf.dir/Scan/ISSILed/led_scan.c.o
                                                  CMakeFiles/kiibohd.elf.dir/main.c.o
CLIHistoryTail                                    CMakeFiles/kiibohd.elf.dir/Debug/cli/cli.c.o
                                                  CMakeFiles/kiibohd.elf.dir/Output/pjrcUSB/output_com.c.o
                                                  CMakeFiles/kiibohd.elf.dir/Macro/PartialMap/macro.c.o
                                                  CMakeFiles/kiibohd.elf.dir/Scan/MDErgo1/scan_loop.c.o
                                                  CMakeFiles/kiibohd.elf.dir/Scan/UARTConnect/connect_scan.c.o
                                                  CMakeFiles/kiibohd.elf.dir/Scan/STLcd/lcd_scan.c.o
                                                  CMakeFiles/kiibohd.elf.dir/Scan/MatrixARM/matrix_scan.c.o
                                                  CMakeFiles/kiibohd.elf.dir/Scan/ISSILed/led_scan.c.o
                                                  CMakeFiles/kiibohd.elf.dir/main.c.o
CLILEDState                                       CMakeFiles/kiibohd.elf.dir/Debug/cli/cli.c.o
                                                  CMakeFiles/kiibohd.elf.dir/Output/pjrcUSB/output_com.c.o
                                                  CMakeFiles/kiibohd.elf.dir/Macro/PartialMap/macro.c.o
                                                  CMakeFiles/kiibohd.elf.dir/Scan/MDErgo1/scan_loop.c.o
                                                  CMakeFiles/kiibohd.elf.dir/Scan/UARTConnect/connect_scan.c.o
                                                  CMakeFiles/kiibohd.elf.dir/Scan/STLcd/lcd_scan.c.o
                                                  CMakeFiles/kiibohd.elf.dir/Scan/MatrixARM/matrix_scan.c.o
                                                  CMakeFiles/kiibohd.elf.dir/Scan/ISSILed/led_scan.c.o
                                                  CMakeFiles/kiibohd.elf.dir/main.c.o
CLILineBuffer                                     CMakeFiles/kiibohd.elf.dir/Debug/cli/cli.c.o
                                                  CMakeFiles/kiibohd.elf.dir/Output/pjrcUSB/output_com.c.o
                                                  CMakeFiles/kiibohd.elf.dir/Macro/PartialMap/macro.c.o
                                                  CMakeFiles/kiibohd.elf.dir/Scan/MDErgo1/scan_loop.c.o
                                                  CMakeFiles/kiibohd.elf.dir/Scan/UARTConnect/connect_scan.c.o
                                                  CMakeFiles/kiibohd.elf.dir/Scan/STLcd/lcd_scan.c.o
                                                  CMakeFiles/kiibohd.elf.dir/Scan/MatrixARM/matrix_scan.c.o
                                                  CMakeFiles/kiibohd.elf.dir/Scan/ISSILed/led_scan.c.o
                                                  CMakeFiles/kiibohd.elf.dir/main.c.o
CLILineBufferCurrent                              CMakeFiles/kiibohd.elf.dir/Debug/cli/cli.c.o
                                                  CMakeFiles/kiibohd.elf.dir/Output/pjrcUSB/output_com.c.o
                                                  CMakeFiles/kiibohd.elf.dir/Macro/PartialMap/macro.c.o
                                                  CMakeFiles/kiibohd.elf.dir/Scan/MDErgo1/scan_loop.c.o
                                                  CMakeFiles/kiibohd.elf.dir/Scan/UARTConnect/connect_scan.c.o
                                                  CMakeFiles/kiibohd.elf.dir/Scan/STLcd/lcd_scan.c.o
                                                  CMakeFiles/kiibohd.elf.dir/Scan/MatrixARM/matrix_scan.c.o
                                                  CMakeFiles/kiibohd.elf.dir/Scan/ISSILed/led_scan.c.o
                                                  CMakeFiles/kiibohd.elf.dir/main.c.o
CLI_argumentIsolation                             CMakeFiles/kiibohd.elf.dir/Debug/cli/cli.c.o
                                                  CMakeFiles/kiibohd.elf.dir/Output/pjrcUSB/output_com.c.o
                                                  CMakeFiles/kiibohd.elf.dir/Macro/PartialMap/macro.c.o
                                                  CMakeFiles/kiibohd.elf.dir/Scan/UARTConnect/connect_scan.c.o
                                                  CMakeFiles/kiibohd.elf.dir/Scan/STLcd/lcd_scan.c.o
                                                  CMakeFiles/kiibohd.elf.dir/Scan/MatrixARM/matrix_scan.c.o
                                                  CMakeFiles/kiibohd.elf.dir/Scan/ISSILed/led_scan.c.o
CLI_commandLookup                                 CMakeFiles/kiibohd.elf.dir/Debug/cli/cli.c.o
CLI_init                                          CMakeFiles/kiibohd.elf.dir/Debug/cli/cli.c.o
                                                  CMakeFiles/kiibohd.elf.dir/main.c.o
CLI_process                                       CMakeFiles/kiibohd.elf.dir/Debug/cli/cli.c.o
                                                  CMakeFiles/kiibohd.elf.dir/main.c.o
CLI_registerDictionary                            CMakeFiles/kiibohd.elf.dir/Debug/cli/cli.c.o
                                                  CMakeFiles/kiibohd.elf.dir/Output/pjrcUSB/output_com.c.o
                                                  CMakeFiles/kiibohd.elf.dir/Macro/PartialMap/macro.c.o
                                                  CMakeFiles/kiibohd.elf.dir/Scan/UARTConnect/connect_scan.c.o
                                                  CMakeFiles/kiibohd.elf.dir/Scan/STLcd/lcd_scan.c.o
                                                  CMakeFiles/kiibohd.elf.dir/Scan/MatrixARM/matrix_scan.c.o
                                                  CMakeFiles/kiibohd.elf.dir/Scan/ISSILed/led_scan.c.o
CLI_retreiveHistory                               CMakeFiles/kiibohd.elf.dir/Debug/cli/cli.c.o
CLI_saveHistory                                   CMakeFiles/kiibohd.elf.dir/Debug/cli/cli.c.o
CLI_tabCompletion                                 CMakeFiles/kiibohd.elf.dir/Debug/cli/cli.c.o
CLI_wrap                                          CMakeFiles/kiibohd.elf.dir/Debug/cli/cli.c.o
CapabilitiesList                                  CMakeFiles/kiibohd.elf.dir/Macro/PartialMap/macro.c.o
                                                  CMakeFiles/kiibohd.elf.dir/Scan/UARTConnect/connect_scan.c.o
                                                  CMakeFiles/kiibohd.elf.dir/Scan/STLcd/lcd_scan.c.o
                                                  CMakeFiles/kiibohd.elf.dir/Scan/ISSILed/led_scan.c.o
Connect_addBytes                                  CMakeFiles/kiibohd.elf.dir/Scan/UARTConnect/connect_scan.c.o
Connect_baud                                      CMakeFiles/kiibohd.elf.dir/Scan/UARTConnect/connect_scan.c.o
Connect_baudFine                                  CMakeFiles/kiibohd.elf.dir/Scan/UARTConnect/connect_scan.c.o
Connect_cableChecksMaster                         CMakeFiles/kiibohd.elf.dir/Scan/UARTConnect/connect_scan.c.o
Connect_cableChecksSlave                          CMakeFiles/kiibohd.elf.dir/Scan/UARTConnect/connect_scan.c.o
Connect_cableFaultsMaster                         CMakeFiles/kiibohd.elf.dir/Scan/UARTConnect/connect_scan.c.o
Connect_cableFaultsSlave                          CMakeFiles/kiibohd.elf.dir/Scan/UARTConnect/connect_scan.c.o
Connect_cableOkMaster                             CMakeFiles/kiibohd.elf.dir/Scan/UARTConnect/connect_scan.c.o
Connect_cableOkSlave                              CMakeFiles/kiibohd.elf.dir/Scan/UARTConnect/connect_scan.c.o
Connect_debug                                     CMakeFiles/kiibohd.elf.dir/Scan/UARTConnect/connect_scan.c.o
Connect_id                                        CMakeFiles/kiibohd.elf.dir/Scan/UARTConnect/connect_scan.c.o
                                                  CMakeFiles/kiibohd.elf.dir/Macro/PartialMap/macro.c.o
                                                  CMakeFiles/kiibohd.elf.dir/Scan/ISSILed/led_scan.c.o
Connect_lastCheck                                 CMakeFiles/kiibohd.elf.dir/Scan/UARTConnect/connect_scan.c.o
Connect_master                                    CMakeFiles/kiibohd.elf.dir/Scan/UARTConnect/connect_scan.c.o
                                                  CMakeFiles/kiibohd.elf.dir/Macro/PartialMap/macro.c.o
                                                  CMakeFiles/kiibohd.elf.dir/Scan/STLcd/lcd_scan.c.o
Connect_maxId                                     CMakeFiles/kiibohd.elf.dir/Scan/UARTConnect/connect_scan.c.o
Connect_override                                  CMakeFiles/kiibohd.elf.dir/Scan/UARTConnect/connect_scan.c.o
Connect_receiveFunctions                          CMakeFiles/kiibohd.elf.dir/Scan/UARTConnect/connect_scan.c.o
Connect_receive_Animation                         CMakeFiles/kiibohd.elf.dir/Scan/UARTConnect/connect_scan.c.o
Connect_receive_CableCheck                        CMakeFiles/kiibohd.elf.dir/Scan/UARTConnect/connect_scan.c.o
Connect_receive_IdEnumeration                     CMakeFiles/kiibohd.elf.dir/Scan/UARTConnect/connect_scan.c.o
Connect_receive_IdReport                          CMakeFiles/kiibohd.elf.dir/Scan/UARTConnect/connect_scan.c.o
Connect_receive_IdRequest                         CMakeFiles/kiibohd.elf.dir/Scan/UARTConnect/connect_scan.c.o
Connect_receive_RemoteCapability                  CMakeFiles/kiibohd.elf.dir/Scan/UARTConnect/connect_scan.c.o
Connect_receive_RemoteCapabilityArgs              CMakeFiles/kiibohd.elf.dir/Scan/UARTConnect/connect_scan.c.o
Connect_receive_RemoteCapabilityBuffer            CMakeFiles/kiibohd.elf.dir/Scan/UARTConnect/connect_scan.c.o
Connect_receive_ScanCode                          CMakeFiles/kiibohd.elf.dir/Scan/UARTConnect/connect_scan.c.o
Connect_receive_ScanCodeBuffer                    CMakeFiles/kiibohd.elf.dir/Scan/UARTConnect/connect_scan.c.o
Connect_receive_ScanCodeBufferPos                 CMakeFiles/kiibohd.elf.dir/Scan/UARTConnect/connect_scan.c.o
Connect_receive_ScanCodeDeviceId                  CMakeFiles/kiibohd.elf.dir/Scan/UARTConnect/connect_scan.c.o
Connect_reset                                     CMakeFiles/kiibohd.elf.dir/Scan/UARTConnect/connect_scan.c.o
Connect_rx_process                                CMakeFiles/kiibohd.elf.dir/Scan/UARTConnect/connect_scan.c.o
Connect_scan                                      CMakeFiles/kiibohd.elf.dir/Scan/UARTConnect/connect_scan.c.o
                                                  CMakeFiles/kiibohd.elf.dir/Scan/MDErgo1/scan_loop.c.o
Connect_send_Animation                            CMakeFiles/kiibohd.elf.dir/Scan/UARTConnect/connect_scan.c.o
Connect_send_CableCheck                           CMakeFiles/kiibohd.elf.dir/Scan/UARTConnect/connect_scan.c.o
Connect_send_IdEnumeration                        CMakeFiles/kiibohd.elf.dir/Scan/UARTConnect/connect_scan.c.o
Connect_send_IdReport                             CMakeFiles/kiibohd.elf.dir/Scan/UARTConnect/connect_scan.c.o
Connect_send_IdRequest                            CMakeFiles/kiibohd.elf.dir/Scan/UARTConnect/connect_scan.c.o
Connect_send_Idle                                 CMakeFiles/kiibohd.elf.dir/Scan/UARTConnect/connect_scan.c.o
Connect_send_RemoteCapability                     CMakeFiles/kiibohd.elf.dir/Scan/UARTConnect/connect_scan.c.o
                                                  CMakeFiles/kiibohd.elf.dir/Scan/STLcd/lcd_scan.c.o
                                                  CMakeFiles/kiibohd.elf.dir/Scan/ISSILed/led_scan.c.o
Connect_send_ScanCode                             CMakeFiles/kiibohd.elf.dir/Scan/UARTConnect/connect_scan.c.o
                                                  CMakeFiles/kiibohd.elf.dir/Macro/PartialMap/macro.c.o
Connect_setup                                     CMakeFiles/kiibohd.elf.dir/Scan/UARTConnect/connect_scan.c.o
                                                  CMakeFiles/kiibohd.elf.dir/Scan/MDErgo1/scan_loop.c.o
I2C_BufferLen                                     CMakeFiles/kiibohd.elf.dir/Scan/ISSILed/led_scan.c.o
I2C_BufferPush                                    CMakeFiles/kiibohd.elf.dir/Scan/ISSILed/led_scan.c.o
I2C_RxBuffer                                      CMakeFiles/kiibohd.elf.dir/Scan/ISSILed/led_scan.c.o
I2C_RxBufferPtr                                   CMakeFiles/kiibohd.elf.dir/Scan/ISSILed/led_scan.c.o
I2C_Send                                          CMakeFiles/kiibohd.elf.dir/Scan/ISSILed/led_scan.c.o
I2C_TxBuffer                                      CMakeFiles/kiibohd.elf.dir/Scan/ISSILed/led_scan.c.o
I2C_TxBufferPop                                   CMakeFiles/kiibohd.elf.dir/Scan/ISSILed/led_scan.c.o
I2C_TxBufferPtr                                   CMakeFiles/kiibohd.elf.dir/Scan/ISSILed/led_scan.c.o
InterconnectOffsetList                            CMakeFiles/kiibohd.elf.dir/Macro/PartialMap/macro.c.o
                                                  CMakeFiles/kiibohd.elf.dir/Scan/UARTConnect/connect_scan.c.o
LCD_clear                                         CMakeFiles/kiibohd.elf.dir/Scan/STLcd/lcd_scan.c.o
LCD_initialize                                    CMakeFiles/kiibohd.elf.dir/Scan/STLcd/lcd_scan.c.o
LCD_layerStackExact                               CMakeFiles/kiibohd.elf.dir/Scan/STLcd/lcd_scan.c.o
LCD_layerStackExact_capability                    CMakeFiles/kiibohd.elf.dir/Scan/STLcd/lcd_scan.c.o
                                                  CMakeFiles/kiibohd.elf.dir/Macro/PartialMap/macro.c.o
LCD_layerStackExact_size                          CMakeFiles/kiibohd.elf.dir/Scan/STLcd/lcd_scan.c.o
LCD_layerStack_capability                         CMakeFiles/kiibohd.elf.dir/Scan/STLcd/lcd_scan.c.o
                                                  CMakeFiles/kiibohd.elf.dir/Macro/PartialMap/macro.c.o
LCD_layerStack_prevSize                           CMakeFiles/kiibohd.elf.dir/Scan/STLcd/lcd_scan.c.o
LCD_layerStack_prevTop                            CMakeFiles/kiibohd.elf.dir/Scan/STLcd/lcd_scan.c.o
LCD_scan                                          CMakeFiles/kiibohd.elf.dir/Scan/STLcd/lcd_scan.c.o
                                                  CMakeFiles/kiibohd.elf.dir/Scan/MDErgo1/scan_loop.c.o
LCD_setup                                         CMakeFiles/kiibohd.elf.dir/Scan/STLcd/lcd_scan.c.o
                                                  CMakeFiles/kiibohd.elf.dir/Scan/MDErgo1/scan_loop.c.o
LCD_writeControlReg                               CMakeFiles/kiibohd.elf.dir/Scan/STLcd/lcd_scan.c.o
LCD_writeDisplayReg                               CMakeFiles/kiibohd.elf.dir/Scan/STLcd/lcd_scan.c.o
LED_control                                       CMakeFiles/kiibohd.elf.dir/Scan/ISSILed/led_scan.c.o
LED_control_capability                            CMakeFiles/kiibohd.elf.dir/Scan/ISSILed/led_scan.c.o
                                                  CMakeFiles/kiibohd.elf.dir/Macro/PartialMap/macro.c.o
LED_control_timer                                 CMakeFiles/kiibohd.elf.dir/Scan/ISSILed/led_scan.c.o
LED_defaultBrightness1                            CMakeFiles/kiibohd.elf.dir/Scan/ISSILed/led_scan.c.o
LED_ledEnableMask1                                CMakeFiles/kiibohd.elf.dir/Scan/ISSILed/led_scan.c.o
LED_pageBuffer                                    CMakeFiles/kiibohd.elf.dir/Scan/ISSILed/led_scan.c.o
LED_readPage                                      CMakeFiles/kiibohd.elf.dir/Scan/ISSILed/led_scan.c.o
LED_scan                                          CMakeFiles/kiibohd.elf.dir/Scan/ISSILed/led_scan.c.o
                                                  CMakeFiles/kiibohd.elf.dir/Scan/MDErgo1/scan_loop.c.o
LED_sendPage                                      CMakeFiles/kiibohd.elf.dir/Scan/ISSILed/led_scan.c.o
LED_setup                                         CMakeFiles/kiibohd.elf.dir/Scan/ISSILed/led_scan.c.o
                                                  CMakeFiles/kiibohd.elf.dir/Scan/MDErgo1/scan_loop.c.o
LED_writeReg                                      CMakeFiles/kiibohd.elf.dir/Scan/ISSILed/led_scan.c.o
LED_zeroPages                                     CMakeFiles/kiibohd.elf.dir/Scan/ISSILed/led_scan.c.o
LayerIndex                                        CMakeFiles/kiibohd.elf.dir/Macro/PartialMap/macro.c.o
LayerState                                        CMakeFiles/kiibohd.elf.dir/Macro/PartialMap/macro.c.o
Macro_analogState                                 CMakeFiles/kiibohd.elf.dir/Macro/PartialMap/macro.c.o
Macro_evalTriggerMacro                            CMakeFiles/kiibohd.elf.dir/Macro/PartialMap/macro.c.o
Macro_interconnectAdd                             CMakeFiles/kiibohd.elf.dir/Macro/PartialMap/macro.c.o
                                                  CMakeFiles/kiibohd.elf.dir/Scan/UARTConnect/connect_scan.c.o
Macro_keyState                                    CMakeFiles/kiibohd.elf.dir/Macro/PartialMap/macro.c.o
                                                  CMakeFiles/kiibohd.elf.dir/Scan/MatrixARM/matrix_scan.c.o
Macro_layerLatch_capability                       CMakeFiles/kiibohd.elf.dir/Macro/PartialMap/macro.c.o
Macro_layerLock_capability                        CMakeFiles/kiibohd.elf.dir/Macro/PartialMap/macro.c.o
Macro_layerLookup                                 CMakeFiles/kiibohd.elf.dir/Macro/PartialMap/macro.c.o
Macro_layerRotate_capability                      CMakeFiles/kiibohd.elf.dir/Macro/PartialMap/macro.c.o
Macro_layerShift_capability                       CMakeFiles/kiibohd.elf.dir/Macro/PartialMap/macro.c.o
Macro_layerState                                  CMakeFiles/kiibohd.elf.dir/Macro/PartialMap/macro.c.o
Macro_layerState_capability                       CMakeFiles/kiibohd.elf.dir/Macro/PartialMap/macro.c.o
Macro_ledState                                    CMakeFiles/kiibohd.elf.dir/Macro/PartialMap/macro.c.o
Macro_process                                     CMakeFiles/kiibohd.elf.dir/Macro/PartialMap/macro.c.o
                                                  CMakeFiles/kiibohd.elf.dir/main.c.o
Macro_rotationLayer                               CMakeFiles/kiibohd.elf.dir/Macro/PartialMap/macro.c.o
Macro_setup                                       CMakeFiles/kiibohd.elf.dir/Macro/PartialMap/macro.c.o
                                                  CMakeFiles/kiibohd.elf.dir/main.c.o
Matrix_cols                                       CMakeFiles/kiibohd.elf.dir/Scan/MatrixARM/matrix_scan.c.o
Matrix_keyPositionDebug                           CMakeFiles/kiibohd.elf.dir/Scan/MatrixARM/matrix_scan.c.o
Matrix_pin                                        CMakeFiles/kiibohd.elf.dir/Scan/MatrixARM/matrix_scan.c.o
Matrix_rows                                       CMakeFiles/kiibohd.elf.dir/Scan/MatrixARM/matrix_scan.c.o
Matrix_scan                                       CMakeFiles/kiibohd.elf.dir/Scan/MatrixARM/matrix_scan.c.o
                                                  CMakeFiles/kiibohd.elf.dir/Scan/MDErgo1/scan_loop.c.o
Matrix_scanArray                                  CMakeFiles/kiibohd.elf.dir/Scan/MatrixARM/matrix_scan.c.o
Matrix_setup                                      CMakeFiles/kiibohd.elf.dir/Scan/MatrixARM/matrix_scan.c.o
                                                  CMakeFiles/kiibohd.elf.dir/Scan/MDErgo1/scan_loop.c.o
Matrix_type                                       CMakeFiles/kiibohd.elf.dir/Scan/MatrixARM/matrix_scan.c.o
Output_Available                                  CMakeFiles/kiibohd.elf.dir/Output/pjrcUSB/output_com.c.o
                                                  CMakeFiles/kiibohd.elf.dir/Output/pjrcUSB/arm/usb_dev.c.o
                                                  CMakeFiles/kiibohd.elf.dir/Scan/MDErgo1/scan_loop.c.o
                                                  CMakeFiles/kiibohd.elf.dir/Scan/UARTConnect/connect_scan.c.o
Output_DebugMode                                  CMakeFiles/kiibohd.elf.dir/Output/pjrcUSB/output_com.c.o
                                                  CMakeFiles/kiibohd.elf.dir/Output/pjrcUSB/arm/usb_keyboard.c.o
Output_availablechar                              CMakeFiles/kiibohd.elf.dir/Output/pjrcUSB/output_com.c.o
                                                  CMakeFiles/kiibohd.elf.dir/Debug/cli/cli.c.o
Output_consCtrlSend_capability                    CMakeFiles/kiibohd.elf.dir/Output/pjrcUSB/output_com.c.o
                                                  CMakeFiles/kiibohd.elf.dir/Macro/PartialMap/macro.c.o
Output_firmwareReload                             CMakeFiles/kiibohd.elf.dir/Output/pjrcUSB/output_com.c.o
Output_flashMode_capability                       CMakeFiles/kiibohd.elf.dir/Output/pjrcUSB/output_com.c.o
                                                  CMakeFiles/kiibohd.elf.dir/Macro/PartialMap/macro.c.o
Output_flushBuffers                               CMakeFiles/kiibohd.elf.dir/Output/pjrcUSB/output_com.c.o
Output_getchar                                    CMakeFiles/kiibohd.elf.dir/Output/pjrcUSB/output_com.c.o
                                                  CMakeFiles/kiibohd.elf.dir/Debug/cli/cli.c.o
Output_kbdProtocolBoot_capability                 CMakeFiles/kiibohd.elf.dir/Output/pjrcUSB/output_com.c.o
                                                  CMakeFiles/kiibohd.elf.dir/Macro/PartialMap/macro.c.o
Output_kbdProtocolNKRO_capability                 CMakeFiles/kiibohd.elf.dir/Output/pjrcUSB/output_com.c.o
                                                  CMakeFiles/kiibohd.elf.dir/Macro/PartialMap/macro.c.o
Output_noneSend_capability                        CMakeFiles/kiibohd.elf.dir/Output/pjrcUSB/output_com.c.o
                                                  CMakeFiles/kiibohd.elf.dir/Macro/PartialMap/macro.c.o
Output_putchar                                    CMakeFiles/kiibohd.elf.dir/Output/pjrcUSB/output_com.c.o
Output_putstr                                     CMakeFiles/kiibohd.elf.dir/Output/pjrcUSB/output_com.c.o
                                                  CMakeFiles/kiibohd.elf.dir/Debug/print/print.c.o
                                                  CMakeFiles/kiibohd.elf.dir/Debug/cli/cli.c.o
                                                  CMakeFiles/kiibohd.elf.dir/Macro/PartialMap/macro.c.o
                                                  CMakeFiles/kiibohd.elf.dir/Scan/UARTConnect/connect_scan.c.o
                                                  CMakeFiles/kiibohd.elf.dir/Scan/ISSILed/led_scan.c.o
Output_send                                       CMakeFiles/kiibohd.elf.dir/Output/pjrcUSB/output_com.c.o
                                                  CMakeFiles/kiibohd.elf.dir/main.c.o
Output_setup                                      CMakeFiles/kiibohd.elf.dir/Output/pjrcUSB/output_com.c.o
                                                  CMakeFiles/kiibohd.elf.dir/main.c.o
Output_softReset                                  CMakeFiles/kiibohd.elf.dir/Output/pjrcUSB/output_com.c.o
                                                  CMakeFiles/kiibohd.elf.dir/Debug/cli/cli.c.o
Output_sysCtrlSend_capability                     CMakeFiles/kiibohd.elf.dir/Output/pjrcUSB/output_com.c.o
                                                  CMakeFiles/kiibohd.elf.dir/Macro/PartialMap/macro.c.o
Output_usbCodeSend_capability                     CMakeFiles/kiibohd.elf.dir/Output/pjrcUSB/output_com.c.o
                                                  CMakeFiles/kiibohd.elf.dir/Macro/PartialMap/macro.c.o
ResetHandler                                      CMakeFiles/kiibohd.elf.dir/Lib/mk20dx.c.o
ResultMacroList                                   CMakeFiles/kiibohd.elf.dir/Macro/PartialMap/macro.c.o
ResultMacroRecordList                             CMakeFiles/kiibohd.elf.dir/Macro/PartialMap/macro.c.o
SPI_write                                         CMakeFiles/kiibohd.elf.dir/Scan/STLcd/lcd_scan.c.o
STLcdDefaultImage                                 CMakeFiles/kiibohd.elf.dir/Scan/STLcd/lcd_scan.c.o
Scan_finishedWithMacro                            CMakeFiles/kiibohd.elf.dir/Scan/MDErgo1/scan_loop.c.o
                                                  CMakeFiles/kiibohd.elf.dir/Macro/PartialMap/macro.c.o
Scan_finishedWithOutput                           CMakeFiles/kiibohd.elf.dir/Scan/MDErgo1/scan_loop.c.o
                                                  CMakeFiles/kiibohd.elf.dir/Output/pjrcUSB/output_com.c.o
Scan_loop                                         CMakeFiles/kiibohd.elf.dir/Scan/MDErgo1/scan_loop.c.o
                                                  CMakeFiles/kiibohd.elf.dir/main.c.o
Scan_scanCount                                    CMakeFiles/kiibohd.elf.dir/Scan/MDErgo1/scan_loop.c.o
Scan_setup                                        CMakeFiles/kiibohd.elf.dir/Scan/MDErgo1/scan_loop.c.o
                                                  CMakeFiles/kiibohd.elf.dir/main.c.o
TriggerMacroList                                  CMakeFiles/kiibohd.elf.dir/Macro/PartialMap/macro.c.o
TriggerMacroRecordList                            CMakeFiles/kiibohd.elf.dir/Macro/PartialMap/macro.c.o
USBKeys_Changed                                   CMakeFiles/kiibohd.elf.dir/Output/pjrcUSB/output_com.c.o
                                                  CMakeFiles/kiibohd.elf.dir/Output/pjrcUSB/arm/usb_keyboard.c.o
USBKeys_ConsCtrl                                  CMakeFiles/kiibohd.elf.dir/Output/pjrcUSB/output_com.c.o
                                                  CMakeFiles/kiibohd.elf.dir/Output/pjrcUSB/arm/usb_keyboard.c.o
USBKeys_Idle_Config                               CMakeFiles/kiibohd.elf.dir/Output/pjrcUSB/output_com.c.o
                                                  CMakeFiles/kiibohd.elf.dir/Output/pjrcUSB/arm/usb_dev.c.o
USBKeys_Idle_Count                                CMakeFiles/kiibohd.elf.dir/Output/pjrcUSB/output_com.c.o
                                                  CMakeFiles/kiibohd.elf.dir/Output/pjrcUSB/arm/usb_dev.c.o
USBKeys_Keys                                      CMakeFiles/kiibohd.elf.dir/Output/pjrcUSB/output_com.c.o
                                                  CMakeFiles/kiibohd.elf.dir/Output/pjrcUSB/arm/usb_keyboard.c.o
USBKeys_KeysCLI                                   CMakeFiles/kiibohd.elf.dir/Output/pjrcUSB/output_com.c.o
USBKeys_LEDs                                      CMakeFiles/kiibohd.elf.dir/Output/pjrcUSB/output_com.c.o
                                                  CMakeFiles/kiibohd.elf.dir/Output/pjrcUSB/arm/usb_dev.c.o
USBKeys_Modifiers                                 CMakeFiles/kiibohd.elf.dir/Output/pjrcUSB/output_com.c.o
                                                  CMakeFiles/kiibohd.elf.dir/Output/pjrcUSB/arm/usb_keyboard.c.o
                                                  CMakeFiles/kiibohd.elf.dir/Macro/PartialMap/macro.c.o
USBKeys_ModifiersCLI                              CMakeFiles/kiibohd.elf.dir/Output/pjrcUSB/output_com.c.o
USBKeys_Protocol                                  CMakeFiles/kiibohd.elf.dir/Output/pjrcUSB/output_com.c.o
                                                  CMakeFiles/kiibohd.elf.dir/Output/pjrcUSB/arm/usb_keyboard.c.o
                                                  CMakeFiles/kiibohd.elf.dir/Output/pjrcUSB/arm/usb_dev.c.o
USBKeys_Sent                                      CMakeFiles/kiibohd.elf.dir/Output/pjrcUSB/output_com.c.o
                                                  CMakeFiles/kiibohd.elf.dir/Macro/PartialMap/macro.c.o
USBKeys_SentCLI                                   CMakeFiles/kiibohd.elf.dir/Output/pjrcUSB/output_com.c.o
USBKeys_SysCtrl                                   CMakeFiles/kiibohd.elf.dir/Output/pjrcUSB/output_com.c.o
                                                  CMakeFiles/kiibohd.elf.dir/Output/pjrcUSB/arm/usb_keyboard.c.o
__brkval                                          CMakeFiles/kiibohd.elf.dir/Lib/mk20dx.c.o
_ebss                                             CMakeFiles/kiibohd.elf.dir/Lib/mk20dx.c.o
_edata                                            CMakeFiles/kiibohd.elf.dir/Lib/mk20dx.c.o
_estack                                           CMakeFiles/kiibohd.elf.dir/Lib/mk20dx.c.o
_etext                                            CMakeFiles/kiibohd.elf.dir/Lib/mk20dx.c.o
_print                                            CMakeFiles/kiibohd.elf.dir/Debug/print/print.c.o
                                                  CMakeFiles/kiibohd.elf.dir/Debug/cli/cli.c.o
                                                  CMakeFiles/kiibohd.elf.dir/Output/pjrcUSB/arm/usb_keyboard.c.o
                                                  CMakeFiles/kiibohd.elf.dir/Output/pjrcUSB/arm/usb_dev.c.o
                                                  CMakeFiles/kiibohd.elf.dir/Output/pjrcUSB/output_com.c.o
                                                  CMakeFiles/kiibohd.elf.dir/Macro/PartialMap/macro.c.o
                                                  CMakeFiles/kiibohd.elf.dir/Scan/UARTConnect/connect_scan.c.o
                                                  CMakeFiles/kiibohd.elf.dir/Scan/STLcd/lcd_scan.c.o
                                                  CMakeFiles/kiibohd.elf.dir/Scan/MatrixARM/matrix_scan.c.o
                                                  CMakeFiles/kiibohd.elf.dir/Scan/ISSILed/led_scan.c.o
                                                  CMakeFiles/kiibohd.elf.dir/Lib/mk20dx.c.o
_sbrk                                             CMakeFiles/kiibohd.elf.dir/Lib/mk20dx.c.o
_sbss                                             CMakeFiles/kiibohd.elf.dir/Lib/mk20dx.c.o
_sdata                                            CMakeFiles/kiibohd.elf.dir/Lib/mk20dx.c.o
adc0_isr                                          CMakeFiles/kiibohd.elf.dir/Lib/mk20dx.c.o
adc1_isr                                          CMakeFiles/kiibohd.elf.dir/Lib/mk20dx.c.o
basicCLIDict                                      CMakeFiles/kiibohd.elf.dir/Debug/cli/cli.c.o
basicCLIDictName                                  CMakeFiles/kiibohd.elf.dir/Debug/cli/cli.c.o
bus_fault_default_isr                             CMakeFiles/kiibohd.elf.dir/Lib/mk20dx.c.o
bus_fault_isr                                     CMakeFiles/kiibohd.elf.dir/Lib/mk20dx.c.o
can0_bus_off_isr                                  CMakeFiles/kiibohd.elf.dir/Lib/mk20dx.c.o
can0_error_isr                                    CMakeFiles/kiibohd.elf.dir/Lib/mk20dx.c.o
can0_message_isr                                  CMakeFiles/kiibohd.elf.dir/Lib/mk20dx.c.o
can0_rx_warn_isr                                  CMakeFiles/kiibohd.elf.dir/Lib/mk20dx.c.o
can0_tx_warn_isr                                  CMakeFiles/kiibohd.elf.dir/Lib/mk20dx.c.o
can0_wakeup_isr                                   CMakeFiles/kiibohd.elf.dir/Lib/mk20dx.c.o
capListCLIDict_DescEntry                          CMakeFiles/kiibohd.elf.dir/Macro/PartialMap/macro.c.o
capSelectCLIDict_DescEntry                        CMakeFiles/kiibohd.elf.dir/Macro/PartialMap/macro.c.o
clearCLIDict_DescEntry                            CMakeFiles/kiibohd.elf.dir/Debug/cli/cli.c.o
cliDebugCLIDict_DescEntry                         CMakeFiles/kiibohd.elf.dir/Debug/cli/cli.c.o
cliFullToggleState                                CMakeFiles/kiibohd.elf.dir/Scan/STLcd/lcd_scan.c.o
cliFunc_capList                                   CMakeFiles/kiibohd.elf.dir/Macro/PartialMap/macro.c.o
cliFunc_capSelect                                 CMakeFiles/kiibohd.elf.dir/Macro/PartialMap/macro.c.o
cliFunc_clear                                     CMakeFiles/kiibohd.elf.dir/Debug/cli/cli.c.o
cliFunc_cliDebug                                  CMakeFiles/kiibohd.elf.dir/Debug/cli/cli.c.o
cliFunc_connectCmd                                CMakeFiles/kiibohd.elf.dir/Scan/UARTConnect/connect_scan.c.o
cliFunc_connectDbg                                CMakeFiles/kiibohd.elf.dir/Scan/UARTConnect/connect_scan.c.o
cliFunc_connectIdl                                CMakeFiles/kiibohd.elf.dir/Scan/UARTConnect/connect_scan.c.o
cliFunc_connectLst                                CMakeFiles/kiibohd.elf.dir/Scan/UARTConnect/connect_scan.c.o
cliFunc_connectMst                                CMakeFiles/kiibohd.elf.dir/Scan/UARTConnect/connect_scan.c.o
cliFunc_connectRst                                CMakeFiles/kiibohd.elf.dir/Scan/UARTConnect/connect_scan.c.o
cliFunc_connectSts                                CMakeFiles/kiibohd.elf.dir/Scan/UARTConnect/connect_scan.c.o
cliFunc_help                                      CMakeFiles/kiibohd.elf.dir/Debug/cli/cli.c.o
cliFunc_i2cRecv                                   CMakeFiles/kiibohd.elf.dir/Scan/ISSILed/led_scan.c.o
cliFunc_i2cSend                                   CMakeFiles/kiibohd.elf.dir/Scan/ISSILed/led_scan.c.o
cliFunc_kbdProtocol                               CMakeFiles/kiibohd.elf.dir/Output/pjrcUSB/output_com.c.o
cliFunc_keyHold                                   CMakeFiles/kiibohd.elf.dir/Macro/PartialMap/macro.c.o
cliFunc_keyPress                                  CMakeFiles/kiibohd.elf.dir/Macro/PartialMap/macro.c.o
cliFunc_keyRelease                                CMakeFiles/kiibohd.elf.dir/Macro/PartialMap/macro.c.o
cliFunc_layerDebug                                CMakeFiles/kiibohd.elf.dir/Macro/PartialMap/macro.c.o
cliFunc_layerList                                 CMakeFiles/kiibohd.elf.dir/Macro/PartialMap/macro.c.o
cliFunc_layerState                                CMakeFiles/kiibohd.elf.dir/Macro/PartialMap/macro.c.o
cliFunc_lcdCmd                                    CMakeFiles/kiibohd.elf.dir/Scan/STLcd/lcd_scan.c.o
cliFunc_lcdColor                                  CMakeFiles/kiibohd.elf.dir/Scan/STLcd/lcd_scan.c.o
cliFunc_lcdDisp                                   CMakeFiles/kiibohd.elf.dir/Scan/STLcd/lcd_scan.c.o
cliFunc_lcdInit                                   CMakeFiles/kiibohd.elf.dir/Scan/STLcd/lcd_scan.c.o
cliFunc_lcdTest                                   CMakeFiles/kiibohd.elf.dir/Scan/STLcd/lcd_scan.c.o
cliFunc_led                                       CMakeFiles/kiibohd.elf.dir/Debug/cli/cli.c.o
cliFunc_ledCtrl                                   CMakeFiles/kiibohd.elf.dir/Scan/ISSILed/led_scan.c.o
cliFunc_ledRPage                                  CMakeFiles/kiibohd.elf.dir/Scan/ISSILed/led_scan.c.o
cliFunc_ledStart                                  CMakeFiles/kiibohd.elf.dir/Scan/ISSILed/led_scan.c.o
cliFunc_ledTest                                   CMakeFiles/kiibohd.elf.dir/Scan/ISSILed/led_scan.c.o
cliFunc_ledWPage                                  CMakeFiles/kiibohd.elf.dir/Scan/ISSILed/led_scan.c.o
cliFunc_ledZero                                   CMakeFiles/kiibohd.elf.dir/Scan/ISSILed/led_scan.c.o
cliFunc_macroDebug                                CMakeFiles/kiibohd.elf.dir/Macro/PartialMap/macro.c.o
cliFunc_macroList                                 CMakeFiles/kiibohd.elf.dir/Macro/PartialMap/macro.c.o
cliFunc_macroProc                                 CMakeFiles/kiibohd.elf.dir/Macro/PartialMap/macro.c.o
cliFunc_macroShow                                 CMakeFiles/kiibohd.elf.dir/Macro/PartialMap/macro.c.o
cliFunc_macroStep                                 CMakeFiles/kiibohd.elf.dir/Macro/PartialMap/macro.c.o
cliFunc_matrixDebug                               CMakeFiles/kiibohd.elf.dir/Scan/MatrixARM/matrix_scan.c.o
cliFunc_matrixState                               CMakeFiles/kiibohd.elf.dir/Scan/MatrixARM/matrix_scan.c.o
cliFunc_outputDebug                               CMakeFiles/kiibohd.elf.dir/Output/pjrcUSB/output_com.c.o
cliFunc_readLEDs                                  CMakeFiles/kiibohd.elf.dir/Output/pjrcUSB/output_com.c.o
cliFunc_reload                                    CMakeFiles/kiibohd.elf.dir/Debug/cli/cli.c.o
cliFunc_reset                                     CMakeFiles/kiibohd.elf.dir/Debug/cli/cli.c.o
cliFunc_restart                                   CMakeFiles/kiibohd.elf.dir/Debug/cli/cli.c.o
cliFunc_sendKeys                                  CMakeFiles/kiibohd.elf.dir/Output/pjrcUSB/output_com.c.o
cliFunc_setKeys                                   CMakeFiles/kiibohd.elf.dir/Output/pjrcUSB/output_com.c.o
cliFunc_setMod                                    CMakeFiles/kiibohd.elf.dir/Output/pjrcUSB/output_com.c.o
cliFunc_version                                   CMakeFiles/kiibohd.elf.dir/Debug/cli/cli.c.o
cliNormalReverseToggleState                       CMakeFiles/kiibohd.elf.dir/Scan/STLcd/lcd_scan.c.o
cmp0_isr                                          CMakeFiles/kiibohd.elf.dir/Lib/mk20dx.c.o
cmp1_isr                                          CMakeFiles/kiibohd.elf.dir/Lib/mk20dx.c.o
cmp2_isr                                          CMakeFiles/kiibohd.elf.dir/Lib/mk20dx.c.o
cmt_isr                                           CMakeFiles/kiibohd.elf.dir/Lib/mk20dx.c.o
connectCmdCLIDict_DescEntry                       CMakeFiles/kiibohd.elf.dir/Scan/UARTConnect/connect_scan.c.o
connectDbgCLIDict_DescEntry                       CMakeFiles/kiibohd.elf.dir/Scan/UARTConnect/connect_scan.c.o
connectIdlCLIDict_DescEntry                       CMakeFiles/kiibohd.elf.dir/Scan/UARTConnect/connect_scan.c.o
connectLstCLIDict_DescEntry                       CMakeFiles/kiibohd.elf.dir/Scan/UARTConnect/connect_scan.c.o
connectMstCLIDict_DescEntry                       CMakeFiles/kiibohd.elf.dir/Scan/UARTConnect/connect_scan.c.o
connectRstCLIDict_DescEntry                       CMakeFiles/kiibohd.elf.dir/Scan/UARTConnect/connect_scan.c.o
connectStsCLIDict_DescEntry                       CMakeFiles/kiibohd.elf.dir/Scan/UARTConnect/connect_scan.c.o
dac0_isr                                          CMakeFiles/kiibohd.elf.dir/Lib/mk20dx.c.o
dac1_isr                                          CMakeFiles/kiibohd.elf.dir/Lib/mk20dx.c.o
debugmonitor_isr                                  CMakeFiles/kiibohd.elf.dir/Lib/mk20dx.c.o
default_scanMap                                   CMakeFiles/kiibohd.elf.dir/Macro/PartialMap/macro.c.o
default_tl_0x02                                   CMakeFiles/kiibohd.elf.dir/Macro/PartialMap/macro.c.o
default_tl_0x03                                   CMakeFiles/kiibohd.elf.dir/Macro/PartialMap/macro.c.o
default_tl_0x04                                   CMakeFiles/kiibohd.elf.dir/Macro/PartialMap/macro.c.o
default_tl_0x05                                   CMakeFiles/kiibohd.elf.dir/Macro/PartialMap/macro.c.o
default_tl_0x06                                   CMakeFiles/kiibohd.elf.dir/Macro/PartialMap/macro.c.o
default_tl_0x07                                   CMakeFiles/kiibohd.elf.dir/Macro/PartialMap/macro.c.o
default_tl_0x08                                   CMakeFiles/kiibohd.elf.dir/Macro/PartialMap/macro.c.o
default_tl_0x09                                   CMakeFiles/kiibohd.elf.dir/Macro/PartialMap/macro.c.o
default_tl_0x0A                                   CMakeFiles/kiibohd.elf.dir/Macro/PartialMap/macro.c.o
default_tl_0x0B                                   CMakeFiles/kiibohd.elf.dir/Macro/PartialMap/macro.c.o
default_tl_0x0C                                   CMakeFiles/kiibohd.elf.dir/Macro/PartialMap/macro.c.o
default_tl_0x0D                                   CMakeFiles/kiibohd.elf.dir/Macro/PartialMap/macro.c.o
default_tl_0x0E                                   CMakeFiles/kiibohd.elf.dir/Macro/PartialMap/macro.c.o
default_tl_0x0F                                   CMakeFiles/kiibohd.elf.dir/Macro/PartialMap/macro.c.o
default_tl_0x10                                   CMakeFiles/kiibohd.elf.dir/Macro/PartialMap/macro.c.o
default_tl_0x11                                   CMakeFiles/kiibohd.elf.dir/Macro/PartialMap/macro.c.o
default_tl_0x12                                   CMakeFiles/kiibohd.elf.dir/Macro/PartialMap/macro.c.o
default_tl_0x13                                   CMakeFiles/kiibohd.elf.dir/Macro/PartialMap/macro.c.o
default_tl_0x14                                   CMakeFiles/kiibohd.elf.dir/Macro/PartialMap/macro.c.o
default_tl_0x15                                   CMakeFiles/kiibohd.elf.dir/Macro/PartialMap/macro.c.o
default_tl_0x16                                   CMakeFiles/kiibohd.elf.dir/Macro/PartialMap/macro.c.o
default_tl_0x17                                   CMakeFiles/kiibohd.elf.dir/Macro/PartialMap/macro.c.o
default_tl_0x18                                   CMakeFiles/kiibohd.elf.dir/Macro/PartialMap/macro.c.o
default_tl_0x19                                   CMakeFiles/kiibohd.elf.dir/Macro/PartialMap/macro.c.o
default_tl_0x1A                                   CMakeFiles/kiibohd.elf.dir/Macro/PartialMap/macro.c.o
default_tl_0x1B                                   CMakeFiles/kiibohd.elf.dir/Macro/PartialMap/macro.c.o
default_tl_0x1C                                   CMakeFiles/kiibohd.elf.dir/Macro/PartialMap/macro.c.o
default_tl_0x1D                                   CMakeFiles/kiibohd.elf.dir/Macro/PartialMap/macro.c.o
default_tl_0x1E                                   CMakeFiles/kiibohd.elf.dir/Macro/PartialMap/macro.c.o
default_tl_0x1F                                   CMakeFiles/kiibohd.elf.dir/Macro/PartialMap/macro.c.o
default_tl_0x20                                   CMakeFiles/kiibohd.elf.dir/Macro/PartialMap/macro.c.o
default_tl_0x21                                   CMakeFiles/kiibohd.elf.dir/Macro/PartialMap/macro.c.o
default_tl_0x22                                   CMakeFiles/kiibohd.elf.dir/Macro/PartialMap/macro.c.o
default_tl_0x23                                   CMakeFiles/kiibohd.elf.dir/Macro/PartialMap/macro.c.o
default_tl_0x24                                   CMakeFiles/kiibohd.elf.dir/Macro/PartialMap/macro.c.o
default_tl_0x25                                   CMakeFiles/kiibohd.elf.dir/Macro/PartialMap/macro.c.o
default_tl_0x26                                   CMakeFiles/kiibohd.elf.dir/Macro/PartialMap/macro.c.o
default_tl_0x27                                   CMakeFiles/kiibohd.elf.dir/Macro/PartialMap/macro.c.o
default_tl_0x28                                   CMakeFiles/kiibohd.elf.dir/Macro/PartialMap/macro.c.o
default_tl_0x29                                   CMakeFiles/kiibohd.elf.dir/Macro/PartialMap/macro.c.o
default_tl_0x2A                                   CMakeFiles/kiibohd.elf.dir/Macro/PartialMap/macro.c.o
default_tl_0x2B                                   CMakeFiles/kiibohd.elf.dir/Macro/PartialMap/macro.c.o
default_tl_0x2C                                   CMakeFiles/kiibohd.elf.dir/Macro/PartialMap/macro.c.o
default_tl_0x2D                                   CMakeFiles/kiibohd.elf.dir/Macro/PartialMap/macro.c.o
default_tl_0x2E                                   CMakeFiles/kiibohd.elf.dir/Macro/PartialMap/macro.c.o
default_tl_0x2F                                   CMakeFiles/kiibohd.elf.dir/Macro/PartialMap/macro.c.o
default_tl_0x30                                   CMakeFiles/kiibohd.elf.dir/Macro/PartialMap/macro.c.o
default_tl_0x31                                   CMakeFiles/kiibohd.elf.dir/Macro/PartialMap/macro.c.o
default_tl_0x32                                   CMakeFiles/kiibohd.elf.dir/Macro/PartialMap/macro.c.o
default_tl_0x33                                   CMakeFiles/kiibohd.elf.dir/Macro/PartialMap/macro.c.o
default_tl_0x34                                   CMakeFiles/kiibohd.elf.dir/Macro/PartialMap/macro.c.o
default_tl_0x35                                   CMakeFiles/kiibohd.elf.dir/Macro/PartialMap/macro.c.o
default_tl_0x36                                   CMakeFiles/kiibohd.elf.dir/Macro/PartialMap/macro.c.o
default_tl_0x37                                   CMakeFiles/kiibohd.elf.dir/Macro/PartialMap/macro.c.o
default_tl_0x38                                   CMakeFiles/kiibohd.elf.dir/Macro/PartialMap/macro.c.o
default_tl_0x39                                   CMakeFiles/kiibohd.elf.dir/Macro/PartialMap/macro.c.o
default_tl_0x3A                                   CMakeFiles/kiibohd.elf.dir/Macro/PartialMap/macro.c.o
default_tl_0x3B                                   CMakeFiles/kiibohd.elf.dir/Macro/PartialMap/macro.c.o
default_tl_0x3C                                   CMakeFiles/kiibohd.elf.dir/Macro/PartialMap/macro.c.o
default_tl_0x3D                                   CMakeFiles/kiibohd.elf.dir/Macro/PartialMap/macro.c.o
default_tl_0x3E                                   CMakeFiles/kiibohd.elf.dir/Macro/PartialMap/macro.c.o
default_tl_0x3F                                   CMakeFiles/kiibohd.elf.dir/Macro/PartialMap/macro.c.o
default_tl_0x40                                   CMakeFiles/kiibohd.elf.dir/Macro/PartialMap/macro.c.o
default_tl_0x41                                   CMakeFiles/kiibohd.elf.dir/Macro/PartialMap/macro.c.o
default_tl_0x42                                   CMakeFiles/kiibohd.elf.dir/Macro/PartialMap/macro.c.o
default_tl_0x43                                   CMakeFiles/kiibohd.elf.dir/Macro/PartialMap/macro.c.o
default_tl_0x44                                   CMakeFiles/kiibohd.elf.dir/Macro/PartialMap/macro.c.o
default_tl_0x45                                   CMakeFiles/kiibohd.elf.dir/Macro/PartialMap/macro.c.o
default_tl_0x46                                   CMakeFiles/kiibohd.elf.dir/Macro/PartialMap/macro.c.o
default_tl_0x47                                   CMakeFiles/kiibohd.elf.dir/Macro/PartialMap/macro.c.o
default_tl_0x48                                   CMakeFiles/kiibohd.elf.dir/Macro/PartialMap/macro.c.o
default_tl_0x49                                   CMakeFiles/kiibohd.elf.dir/Macro/PartialMap/macro.c.o
default_tl_0x4A                                   CMakeFiles/kiibohd.elf.dir/Macro/PartialMap/macro.c.o
default_tl_0x4B                                   CMakeFiles/kiibohd.elf.dir/Macro/PartialMap/macro.c.o
default_tl_0x4C                                   CMakeFiles/kiibohd.elf.dir/Macro/PartialMap/macro.c.o
default_tl_0x4D                                   CMakeFiles/kiibohd.elf.dir/Macro/PartialMap/macro.c.o
default_tl_0x4E                                   CMakeFiles/kiibohd.elf.dir/Macro/PartialMap/macro.c.o
default_tl_0x4F                                   CMakeFiles/kiibohd.elf.dir/Macro/PartialMap/macro.c.o
default_tl_0x50                                   CMakeFiles/kiibohd.elf.dir/Macro/PartialMap/macro.c.o
default_tl_0x51                                   CMakeFiles/kiibohd.elf.dir/Macro/PartialMap/macro.c.o
default_tl_0x52                                   CMakeFiles/kiibohd.elf.dir/Macro/PartialMap/macro.c.o
default_tl_0x53                                   CMakeFiles/kiibohd.elf.dir/Macro/PartialMap/macro.c.o
default_tl_0x54                                   CMakeFiles/kiibohd.elf.dir/Macro/PartialMap/macro.c.o
default_tl_0x55                                   CMakeFiles/kiibohd.elf.dir/Macro/PartialMap/macro.c.o
default_tl_0x56                                   CMakeFiles/kiibohd.elf.dir/Macro/PartialMap/macro.c.o
default_tl_0x57                                   CMakeFiles/kiibohd.elf.dir/Macro/PartialMap/macro.c.o
default_tl_0x58                                   CMakeFiles/kiibohd.elf.dir/Macro/PartialMap/macro.c.o
default_tl_0x59                                   CMakeFiles/kiibohd.elf.dir/Macro/PartialMap/macro.c.o
delay                                             CMakeFiles/kiibohd.elf.dir/Lib/delay.c.o
                                                  CMakeFiles/kiibohd.elf.dir/Scan/UARTConnect/connect_scan.c.o
                                                  CMakeFiles/kiibohd.elf.dir/Scan/ISSILed/led_scan.c.o
dma_ch0_isr                                       CMakeFiles/kiibohd.elf.dir/Lib/mk20dx.c.o
dma_ch10_isr                                      CMakeFiles/kiibohd.elf.dir/Lib/mk20dx.c.o
dma_ch11_isr                                      CMakeFiles/kiibohd.elf.dir/Lib/mk20dx.c.o
dma_ch12_isr                                      CMakeFiles/kiibohd.elf.dir/Lib/mk20dx.c.o
dma_ch13_isr                                      CMakeFiles/kiibohd.elf.dir/Lib/mk20dx.c.o
dma_ch14_isr                                      CMakeFiles/kiibohd.elf.dir/Lib/mk20dx.c.o
dma_ch15_isr                                      CMakeFiles/kiibohd.elf.dir/Lib/mk20dx.c.o
dma_ch1_isr                                       CMakeFiles/kiibohd.elf.dir/Lib/mk20dx.c.o
dma_ch2_isr                                       CMakeFiles/kiibohd.elf.dir/Lib/mk20dx.c.o
dma_ch3_isr                                       CMakeFiles/kiibohd.elf.dir/Lib/mk20dx.c.o
dma_ch4_isr                                       CMakeFiles/kiibohd.elf.dir/Lib/mk20dx.c.o
dma_ch5_isr                                       CMakeFiles/kiibohd.elf.dir/Lib/mk20dx.c.o
dma_ch6_isr                                       CMakeFiles/kiibohd.elf.dir/Lib/mk20dx.c.o
dma_ch7_isr                                       CMakeFiles/kiibohd.elf.dir/Lib/mk20dx.c.o
dma_ch8_isr                                       CMakeFiles/kiibohd.elf.dir/Lib/mk20dx.c.o
dma_ch9_isr                                       CMakeFiles/kiibohd.elf.dir/Lib/mk20dx.c.o
dma_error_isr                                     CMakeFiles/kiibohd.elf.dir/Lib/mk20dx.c.o
eqStr                                             CMakeFiles/kiibohd.elf.dir/Debug/print/print.c.o
                                                  CMakeFiles/kiibohd.elf.dir/Debug/cli/cli.c.o
errorLED                                          CMakeFiles/kiibohd.elf.dir/Debug/led/led.c.o
                                                  CMakeFiles/kiibohd.elf.dir/Debug/cli/cli.c.o
fault_isr                                         CMakeFiles/kiibohd.elf.dir/Lib/mk20dx.c.o
flash_cmd_isr                                     CMakeFiles/kiibohd.elf.dir/Lib/mk20dx.c.o
flash_error_isr                                   CMakeFiles/kiibohd.elf.dir/Lib/mk20dx.c.o
ftm0_isr                                          CMakeFiles/kiibohd.elf.dir/Lib/mk20dx.c.o
ftm1_isr                                          CMakeFiles/kiibohd.elf.dir/Lib/mk20dx.c.o
ftm2_isr                                          CMakeFiles/kiibohd.elf.dir/Lib/mk20dx.c.o
ftm3_isr                                          CMakeFiles/kiibohd.elf.dir/Lib/mk20dx.c.o
gVectors                                          CMakeFiles/kiibohd.elf.dir/Lib/mk20dx.c.o
hard_fault_default_isr                            CMakeFiles/kiibohd.elf.dir/Lib/mk20dx.c.o
hard_fault_isr                                    CMakeFiles/kiibohd.elf.dir/Lib/mk20dx.c.o
helpCLIDict_DescEntry                             CMakeFiles/kiibohd.elf.dir/Debug/cli/cli.c.o
hex32ToStr_op                                     CMakeFiles/kiibohd.elf.dir/Debug/print/print.c.o
hexToStr_op                                       CMakeFiles/kiibohd.elf.dir/Debug/print/print.c.o
i2c0_isr                                          CMakeFiles/kiibohd.elf.dir/Scan/ISSILed/led_scan.c.o
                                                  CMakeFiles/kiibohd.elf.dir/Lib/mk20dx.c.o
i2c1_isr                                          CMakeFiles/kiibohd.elf.dir/Lib/mk20dx.c.o
i2c2_isr                                          CMakeFiles/kiibohd.elf.dir/Lib/mk20dx.c.o
i2cRecvCLIDict_DescEntry                          CMakeFiles/kiibohd.elf.dir/Scan/ISSILed/led_scan.c.o
i2cSendCLIDict_DescEntry                          CMakeFiles/kiibohd.elf.dir/Scan/ISSILed/led_scan.c.o
i2s0_rx_isr                                       CMakeFiles/kiibohd.elf.dir/Lib/mk20dx.c.o
i2s0_tx_isr                                       CMakeFiles/kiibohd.elf.dir/Lib/mk20dx.c.o
init_errorLED                                     CMakeFiles/kiibohd.elf.dir/Debug/led/led.c.o
                                                  CMakeFiles/kiibohd.elf.dir/Debug/cli/cli.c.o
int16ToStr                                        CMakeFiles/kiibohd.elf.dir/Debug/print/print.c.o
int32ToStr                                        CMakeFiles/kiibohd.elf.dir/Debug/print/print.c.o
int8ToStr                                         CMakeFiles/kiibohd.elf.dir/Debug/print/print.c.o
kbdProtocolCLIDict_DescEntry                      CMakeFiles/kiibohd.elf.dir/Output/pjrcUSB/output_com.c.o
keyHoldCLIDict_DescEntry                          CMakeFiles/kiibohd.elf.dir/Macro/PartialMap/macro.c.o
keyPressCLIDict_DescEntry                         CMakeFiles/kiibohd.elf.dir/Macro/PartialMap/macro.c.o
keyReleaseCLIDict_DescEntry                       CMakeFiles/kiibohd.elf.dir/Macro/PartialMap/macro.c.o
layer1_scanMap                                    CMakeFiles/kiibohd.elf.dir/Macro/PartialMap/macro.c.o
layer1_tl_0x0C                                    CMakeFiles/kiibohd.elf.dir/Macro/PartialMap/macro.c.o
layer1_tl_0x0D                                    CMakeFiles/kiibohd.elf.dir/Macro/PartialMap/macro.c.o
layer1_tl_0x0E                                    CMakeFiles/kiibohd.elf.dir/Macro/PartialMap/macro.c.o
layer1_tl_0x0F                                    CMakeFiles/kiibohd.elf.dir/Macro/PartialMap/macro.c.o
layer1_tl_0x10                                    CMakeFiles/kiibohd.elf.dir/Macro/PartialMap/macro.c.o
layer1_tl_0x11                                    CMakeFiles/kiibohd.elf.dir/Macro/PartialMap/macro.c.o
layer1_tl_0x12                                    CMakeFiles/kiibohd.elf.dir/Macro/PartialMap/macro.c.o
layer1_tl_0x13                                    CMakeFiles/kiibohd.elf.dir/Macro/PartialMap/macro.c.o
layer1_tl_0x14                                    CMakeFiles/kiibohd.elf.dir/Macro/PartialMap/macro.c.o
layer1_tl_0x15                                    CMakeFiles/kiibohd.elf.dir/Macro/PartialMap/macro.c.o
layer1_tl_0x16                                    CMakeFiles/kiibohd.elf.dir/Macro/PartialMap/macro.c.o
layer1_tl_0x17                                    CMakeFiles/kiibohd.elf.dir/Macro/PartialMap/macro.c.o
layer1_tl_0x18                                    CMakeFiles/kiibohd.elf.dir/Macro/PartialMap/macro.c.o
layer1_tl_0x19                                    CMakeFiles/kiibohd.elf.dir/Macro/PartialMap/macro.c.o
layer1_tl_0x1A                                    CMakeFiles/kiibohd.elf.dir/Macro/PartialMap/macro.c.o
layer1_tl_0x1B                                    CMakeFiles/kiibohd.elf.dir/Macro/PartialMap/macro.c.o
layer1_tl_0x1C                                    CMakeFiles/kiibohd.elf.dir/Macro/PartialMap/macro.c.o
layer1_tl_0x1D                                    CMakeFiles/kiibohd.elf.dir/Macro/PartialMap/macro.c.o
layer1_tl_0x1E                                    CMakeFiles/kiibohd.elf.dir/Macro/PartialMap/macro.c.o
layer1_tl_0x1F                                    CMakeFiles/kiibohd.elf.dir/Macro/PartialMap/macro.c.o
layer1_tl_0x20                                    CMakeFiles/kiibohd.elf.dir/Macro/PartialMap/macro.c.o
layer1_tl_0x21                                    CMakeFiles/kiibohd.elf.dir/Macro/PartialMap/macro.c.o
layer1_tl_0x22                                    CMakeFiles/kiibohd.elf.dir/Macro/PartialMap/macro.c.o
layer1_tl_0x23                                    CMakeFiles/kiibohd.elf.dir/Macro/PartialMap/macro.c.o
layer1_tl_0x24                                    CMakeFiles/kiibohd.elf.dir/Macro/PartialMap/macro.c.o
layer1_tl_0x25                                    CMakeFiles/kiibohd.elf.dir/Macro/PartialMap/macro.c.o
layer1_tl_0x26                                    CMakeFiles/kiibohd.elf.dir/Macro/PartialMap/macro.c.o
layer1_tl_0x27                                    CMakeFiles/kiibohd.elf.dir/Macro/PartialMap/macro.c.o
layer1_tl_0x28                                    CMakeFiles/kiibohd.elf.dir/Macro/PartialMap/macro.c.o
layer1_tl_0x29                                    CMakeFiles/kiibohd.elf.dir/Macro/PartialMap/macro.c.o
layer1_tl_0x2A                                    CMakeFiles/kiibohd.elf.dir/Macro/PartialMap/macro.c.o
layer1_tl_0x2B                                    CMakeFiles/kiibohd.elf.dir/Macro/PartialMap/macro.c.o
layer1_tl_0x2C                                    CMakeFiles/kiibohd.elf.dir/Macro/PartialMap/macro.c.o
layer1_tl_0x2D                                    CMakeFiles/kiibohd.elf.dir/Macro/PartialMap/macro.c.o
layer1_tl_0x2E                                    CMakeFiles/kiibohd.elf.dir/Macro/PartialMap/macro.c.o
layer1_tl_0x2F                                    CMakeFiles/kiibohd.elf.dir/Macro/PartialMap/macro.c.o
layer1_tl_0x30                                    CMakeFiles/kiibohd.elf.dir/Macro/PartialMap/macro.c.o
layer1_tl_0x31                                    CMakeFiles/kiibohd.elf.dir/Macro/PartialMap/macro.c.o
layer1_tl_0x32                                    CMakeFiles/kiibohd.elf.dir/Macro/PartialMap/macro.c.o
layer1_tl_0x33                                    CMakeFiles/kiibohd.elf.dir/Macro/PartialMap/macro.c.o
layer1_tl_0x34                                    CMakeFiles/kiibohd.elf.dir/Macro/PartialMap/macro.c.o
layer1_tl_0x35                                    CMakeFiles/kiibohd.elf.dir/Macro/PartialMap/macro.c.o
layer1_tl_0x36                                    CMakeFiles/kiibohd.elf.dir/Macro/PartialMap/macro.c.o
layer1_tl_0x37                                    CMakeFiles/kiibohd.elf.dir/Macro/PartialMap/macro.c.o
layer1_tl_0x38                                    CMakeFiles/kiibohd.elf.dir/Macro/PartialMap/macro.c.o
layer1_tl_0x39                                    CMakeFiles/kiibohd.elf.dir/Macro/PartialMap/macro.c.o
layer1_tl_0x3A                                    CMakeFiles/kiibohd.elf.dir/Macro/PartialMap/macro.c.o
layer1_tl_0x3B                                    CMakeFiles/kiibohd.elf.dir/Macro/PartialMap/macro.c.o
layer1_tl_0x3C                                    CMakeFiles/kiibohd.elf.dir/Macro/PartialMap/macro.c.o
layer1_tl_0x3D                                    CMakeFiles/kiibohd.elf.dir/Macro/PartialMap/macro.c.o
layer1_tl_0x3E                                    CMakeFiles/kiibohd.elf.dir/Macro/PartialMap/macro.c.o
layer1_tl_0x3F                                    CMakeFiles/kiibohd.elf.dir/Macro/PartialMap/macro.c.o
layer1_tl_0x40                                    CMakeFiles/kiibohd.elf.dir/Macro/PartialMap/macro.c.o
layer1_tl_0x41                                    CMakeFiles/kiibohd.elf.dir/Macro/PartialMap/macro.c.o
layer1_tl_0x42                                    CMakeFiles/kiibohd.elf.dir/Macro/PartialMap/macro.c.o
layer1_tl_0x43                                    CMakeFiles/kiibohd.elf.dir/Macro/PartialMap/macro.c.o
layer1_tl_0x44                                    CMakeFiles/kiibohd.elf.dir/Macro/PartialMap/macro.c.o
layer1_tl_0x45                                    CMakeFiles/kiibohd.elf.dir/Macro/PartialMap/macro.c.o
layer1_tl_0x46                                    CMakeFiles/kiibohd.elf.dir/Macro/PartialMap/macro.c.o
layer1_tl_0x47                                    CMakeFiles/kiibohd.elf.dir/Macro/PartialMap/macro.c.o
layer1_tl_0x48                                    CMakeFiles/kiibohd.elf.dir/Macro/PartialMap/macro.c.o
layer1_tl_0x49                                    CMakeFiles/kiibohd.elf.dir/Macro/PartialMap/macro.c.o
layer1_tl_0x4A                                    CMakeFiles/kiibohd.elf.dir/Macro/PartialMap/macro.c.o
layer1_tl_0x4B                                    CMakeFiles/kiibohd.elf.dir/Macro/PartialMap/macro.c.o
layer1_tl_0x4C                                    CMakeFiles/kiibohd.elf.dir/Macro/PartialMap/macro.c.o
layer1_tl_0x4D                                    CMakeFiles/kiibohd.elf.dir/Macro/PartialMap/macro.c.o
layer1_tl_0x4E                                    CMakeFiles/kiibohd.elf.dir/Macro/PartialMap/macro.c.o
layer1_tl_0x4F                                    CMakeFiles/kiibohd.elf.dir/Macro/PartialMap/macro.c.o
layer2_scanMap                                    CMakeFiles/kiibohd.elf.dir/Macro/PartialMap/macro.c.o
layer2_tl_0x0C                                    CMakeFiles/kiibohd.elf.dir/Macro/PartialMap/macro.c.o
layer2_tl_0x0D                                    CMakeFiles/kiibohd.elf.dir/Macro/PartialMap/macro.c.o
layer2_tl_0x0E                                    CMakeFiles/kiibohd.elf.dir/Macro/PartialMap/macro.c.o
layer2_tl_0x0F                                    CMakeFiles/kiibohd.elf.dir/Macro/PartialMap/macro.c.o
layer2_tl_0x10                                    CMakeFiles/kiibohd.elf.dir/Macro/PartialMap/macro.c.o
layer2_tl_0x11                                    CMakeFiles/kiibohd.elf.dir/Macro/PartialMap/macro.c.o
layer2_tl_0x12                                    CMakeFiles/kiibohd.elf.dir/Macro/PartialMap/macro.c.o
layer2_tl_0x13                                    CMakeFiles/kiibohd.elf.dir/Macro/PartialMap/macro.c.o
layer2_tl_0x14                                    CMakeFiles/kiibohd.elf.dir/Macro/PartialMap/macro.c.o
layer2_tl_0x15                                    CMakeFiles/kiibohd.elf.dir/Macro/PartialMap/macro.c.o
layer2_tl_0x16                                    CMakeFiles/kiibohd.elf.dir/Macro/PartialMap/macro.c.o
layer2_tl_0x17                                    CMakeFiles/kiibohd.elf.dir/Macro/PartialMap/macro.c.o
layer2_tl_0x18                                    CMakeFiles/kiibohd.elf.dir/Macro/PartialMap/macro.c.o
layer2_tl_0x19                                    CMakeFiles/kiibohd.elf.dir/Macro/PartialMap/macro.c.o
layer2_tl_0x1A                                    CMakeFiles/kiibohd.elf.dir/Macro/PartialMap/macro.c.o
layer2_tl_0x1B                                    CMakeFiles/kiibohd.elf.dir/Macro/PartialMap/macro.c.o
layer2_tl_0x1C                                    CMakeFiles/kiibohd.elf.dir/Macro/PartialMap/macro.c.o
layer2_tl_0x1D                                    CMakeFiles/kiibohd.elf.dir/Macro/PartialMap/macro.c.o
layer2_tl_0x1E                                    CMakeFiles/kiibohd.elf.dir/Macro/PartialMap/macro.c.o
layer2_tl_0x1F                                    CMakeFiles/kiibohd.elf.dir/Macro/PartialMap/macro.c.o
layer2_tl_0x20                                    CMakeFiles/kiibohd.elf.dir/Macro/PartialMap/macro.c.o
layer2_tl_0x21                                    CMakeFiles/kiibohd.elf.dir/Macro/PartialMap/macro.c.o
layer2_tl_0x22                                    CMakeFiles/kiibohd.elf.dir/Macro/PartialMap/macro.c.o
layer2_tl_0x23                                    CMakeFiles/kiibohd.elf.dir/Macro/PartialMap/macro.c.o
layer2_tl_0x24                                    CMakeFiles/kiibohd.elf.dir/Macro/PartialMap/macro.c.o
layer2_tl_0x25                                    CMakeFiles/kiibohd.elf.dir/Macro/PartialMap/macro.c.o
layer2_tl_0x26                                    CMakeFiles/kiibohd.elf.dir/Macro/PartialMap/macro.c.o
layer2_tl_0x27                                    CMakeFiles/kiibohd.elf.dir/Macro/PartialMap/macro.c.o
layer2_tl_0x28                                    CMakeFiles/kiibohd.elf.dir/Macro/PartialMap/macro.c.o
layer2_tl_0x29                                    CMakeFiles/kiibohd.elf.dir/Macro/PartialMap/macro.c.o
layer2_tl_0x2A                                    CMakeFiles/kiibohd.elf.dir/Macro/PartialMap/macro.c.o
layer2_tl_0x2B                                    CMakeFiles/kiibohd.elf.dir/Macro/PartialMap/macro.c.o
layer2_tl_0x2C                                    CMakeFiles/kiibohd.elf.dir/Macro/PartialMap/macro.c.o
layer2_tl_0x2D                                    CMakeFiles/kiibohd.elf.dir/Macro/PartialMap/macro.c.o
layer2_tl_0x2E                                    CMakeFiles/kiibohd.elf.dir/Macro/PartialMap/macro.c.o
layer2_tl_0x2F                                    CMakeFiles/kiibohd.elf.dir/Macro/PartialMap/macro.c.o
layer2_tl_0x30                                    CMakeFiles/kiibohd.elf.dir/Macro/PartialMap/macro.c.o
layer2_tl_0x31                                    CMakeFiles/kiibohd.elf.dir/Macro/PartialMap/macro.c.o
layer2_tl_0x32                                    CMakeFiles/kiibohd.elf.dir/Macro/PartialMap/macro.c.o
layer2_tl_0x33                                    CMakeFiles/kiibohd.elf.dir/Macro/PartialMap/macro.c.o
layer2_tl_0x34                                    CMakeFiles/kiibohd.elf.dir/Macro/PartialMap/macro.c.o
layer2_tl_0x35                                    CMakeFiles/kiibohd.elf.dir/Macro/PartialMap/macro.c.o
layer2_tl_0x36                                    CMakeFiles/kiibohd.elf.dir/Macro/PartialMap/macro.c.o
layer2_tl_0x37                                    CMakeFiles/kiibohd.elf.dir/Macro/PartialMap/macro.c.o
layer2_tl_0x38                                    CMakeFiles/kiibohd.elf.dir/Macro/PartialMap/macro.c.o
layer2_tl_0x39                                    CMakeFiles/kiibohd.elf.dir/Macro/PartialMap/macro.c.o
layer2_tl_0x3A                                    CMakeFiles/kiibohd.elf.dir/Macro/PartialMap/macro.c.o
layer2_tl_0x3B                                    CMakeFiles/kiibohd.elf.dir/Macro/PartialMap/macro.c.o
layer2_tl_0x3C                                    CMakeFiles/kiibohd.elf.dir/Macro/PartialMap/macro.c.o
layer2_tl_0x3D                                    CMakeFiles/kiibohd.elf.dir/Macro/PartialMap/macro.c.o
layer2_tl_0x3E                                    CMakeFiles/kiibohd.elf.dir/Macro/PartialMap/macro.c.o
layer2_tl_0x3F                                    CMakeFiles/kiibohd.elf.dir/Macro/PartialMap/macro.c.o
layer2_tl_0x40                                    CMakeFiles/kiibohd.elf.dir/Macro/PartialMap/macro.c.o
layer2_tl_0x41                                    CMakeFiles/kiibohd.elf.dir/Macro/PartialMap/macro.c.o
layer2_tl_0x42                                    CMakeFiles/kiibohd.elf.dir/Macro/PartialMap/macro.c.o
layer2_tl_0x43                                    CMakeFiles/kiibohd.elf.dir/Macro/PartialMap/macro.c.o
layer2_tl_0x44                                    CMakeFiles/kiibohd.elf.dir/Macro/PartialMap/macro.c.o
layer2_tl_0x45                                    CMakeFiles/kiibohd.elf.dir/Macro/PartialMap/macro.c.o
layer2_tl_0x46                                    CMakeFiles/kiibohd.elf.dir/Macro/PartialMap/macro.c.o
layer2_tl_0x47                                    CMakeFiles/kiibohd.elf.dir/Macro/PartialMap/macro.c.o
layer2_tl_0x48                                    CMakeFiles/kiibohd.elf.dir/Macro/PartialMap/macro.c.o
layer2_tl_0x49                                    CMakeFiles/kiibohd.elf.dir/Macro/PartialMap/macro.c.o
layer2_tl_0x4A                                    CMakeFiles/kiibohd.elf.dir/Macro/PartialMap/macro.c.o
layer2_tl_0x4B                                    CMakeFiles/kiibohd.elf.dir/Macro/PartialMap/macro.c.o
layer2_tl_0x4C                                    CMakeFiles/kiibohd.elf.dir/Macro/PartialMap/macro.c.o
layer3_scanMap                                    CMakeFiles/kiibohd.elf.dir/Macro/PartialMap/macro.c.o
layer3_tl_0x15                                    CMakeFiles/kiibohd.elf.dir/Macro/PartialMap/macro.c.o
layer3_tl_0x16                                    CMakeFiles/kiibohd.elf.dir/Macro/PartialMap/macro.c.o
layer3_tl_0x17                                    CMakeFiles/kiibohd.elf.dir/Macro/PartialMap/macro.c.o
layer3_tl_0x18                                    CMakeFiles/kiibohd.elf.dir/Macro/PartialMap/macro.c.o
layer3_tl_0x19                                    CMakeFiles/kiibohd.elf.dir/Macro/PartialMap/macro.c.o
layer3_tl_0x1A                                    CMakeFiles/kiibohd.elf.dir/Macro/PartialMap/macro.c.o
layer3_tl_0x1B                                    CMakeFiles/kiibohd.elf.dir/Macro/PartialMap/macro.c.o
layer3_tl_0x1C                                    CMakeFiles/kiibohd.elf.dir/Macro/PartialMap/macro.c.o
layer3_tl_0x1D                                    CMakeFiles/kiibohd.elf.dir/Macro/PartialMap/macro.c.o
layer3_tl_0x1E                                    CMakeFiles/kiibohd.elf.dir/Macro/PartialMap/macro.c.o
layer3_tl_0x1F                                    CMakeFiles/kiibohd.elf.dir/Macro/PartialMap/macro.c.o
layer3_tl_0x20                                    CMakeFiles/kiibohd.elf.dir/Macro/PartialMap/macro.c.o
layer3_tl_0x21                                    CMakeFiles/kiibohd.elf.dir/Macro/PartialMap/macro.c.o
layer3_tl_0x22                                    CMakeFiles/kiibohd.elf.dir/Macro/PartialMap/macro.c.o
layer3_tl_0x23                                    CMakeFiles/kiibohd.elf.dir/Macro/PartialMap/macro.c.o
layer3_tl_0x24                                    CMakeFiles/kiibohd.elf.dir/Macro/PartialMap/macro.c.o
layer3_tl_0x25                                    CMakeFiles/kiibohd.elf.dir/Macro/PartialMap/macro.c.o
layer3_tl_0x26                                    CMakeFiles/kiibohd.elf.dir/Macro/PartialMap/macro.c.o
layer3_tl_0x27                                    CMakeFiles/kiibohd.elf.dir/Macro/PartialMap/macro.c.o
layer3_tl_0x28                                    CMakeFiles/kiibohd.elf.dir/Macro/PartialMap/macro.c.o
layer3_tl_0x29                                    CMakeFiles/kiibohd.elf.dir/Macro/PartialMap/macro.c.o
layer3_tl_0x2A                                    CMakeFiles/kiibohd.elf.dir/Macro/PartialMap/macro.c.o
layer3_tl_0x2B                                    CMakeFiles/kiibohd.elf.dir/Macro/PartialMap/macro.c.o
layer3_tl_0x2C                                    CMakeFiles/kiibohd.elf.dir/Macro/PartialMap/macro.c.o
layer3_tl_0x2D                                    CMakeFiles/kiibohd.elf.dir/Macro/PartialMap/macro.c.o
layer3_tl_0x2E                                    CMakeFiles/kiibohd.elf.dir/Macro/PartialMap/macro.c.o
layer3_tl_0x2F                                    CMakeFiles/kiibohd.elf.dir/Macro/PartialMap/macro.c.o
layer3_tl_0x30                                    CMakeFiles/kiibohd.elf.dir/Macro/PartialMap/macro.c.o
layer3_tl_0x31                                    CMakeFiles/kiibohd.elf.dir/Macro/PartialMap/macro.c.o
layer3_tl_0x32                                    CMakeFiles/kiibohd.elf.dir/Macro/PartialMap/macro.c.o
layer3_tl_0x33                                    CMakeFiles/kiibohd.elf.dir/Macro/PartialMap/macro.c.o
layer3_tl_0x34                                    CMakeFiles/kiibohd.elf.dir/Macro/PartialMap/macro.c.o
layer3_tl_0x35                                    CMakeFiles/kiibohd.elf.dir/Macro/PartialMap/macro.c.o
layer3_tl_0x36                                    CMakeFiles/kiibohd.elf.dir/Macro/PartialMap/macro.c.o
layer3_tl_0x37                                    CMakeFiles/kiibohd.elf.dir/Macro/PartialMap/macro.c.o
layer3_tl_0x38                                    CMakeFiles/kiibohd.elf.dir/Macro/PartialMap/macro.c.o
layer3_tl_0x39                                    CMakeFiles/kiibohd.elf.dir/Macro/PartialMap/macro.c.o
layer3_tl_0x3A                                    CMakeFiles/kiibohd.elf.dir/Macro/PartialMap/macro.c.o
layer3_tl_0x3B                                    CMakeFiles/kiibohd.elf.dir/Macro/PartialMap/macro.c.o
layer3_tl_0x3C                                    CMakeFiles/kiibohd.elf.dir/Macro/PartialMap/macro.c.o
layer3_tl_0x3D                                    CMakeFiles/kiibohd.elf.dir/Macro/PartialMap/macro.c.o
layer3_tl_0x3E                                    CMakeFiles/kiibohd.elf.dir/Macro/PartialMap/macro.c.o
layer3_tl_0x3F                                    CMakeFiles/kiibohd.elf.dir/Macro/PartialMap/macro.c.o
layer3_tl_0x40                                    CMakeFiles/kiibohd.elf.dir/Macro/PartialMap/macro.c.o
layer3_tl_0x41                                    CMakeFiles/kiibohd.elf.dir/Macro/PartialMap/macro.c.o
layer3_tl_0x42                                    CMakeFiles/kiibohd.elf.dir/Macro/PartialMap/macro.c.o
layer3_tl_0x43                                    CMakeFiles/kiibohd.elf.dir/Macro/PartialMap/macro.c.o
layer3_tl_0x44                                    CMakeFiles/kiibohd.elf.dir/Macro/PartialMap/macro.c.o
layer3_tl_0x45                                    CMakeFiles/kiibohd.elf.dir/Macro/PartialMap/macro.c.o
layer3_tl_0x46                                    CMakeFiles/kiibohd.elf.dir/Macro/PartialMap/macro.c.o
layer3_tl_0x47                                    CMakeFiles/kiibohd.elf.dir/Macro/PartialMap/macro.c.o
layer3_tl_0x48                                    CMakeFiles/kiibohd.elf.dir/Macro/PartialMap/macro.c.o
layer3_tl_0x49                                    CMakeFiles/kiibohd.elf.dir/Macro/PartialMap/macro.c.o
layer3_tl_0x4A                                    CMakeFiles/kiibohd.elf.dir/Macro/PartialMap/macro.c.o
layer3_tl_0x4B                                    CMakeFiles/kiibohd.elf.dir/Macro/PartialMap/macro.c.o
layer3_tl_0x4C                                    CMakeFiles/kiibohd.elf.dir/Macro/PartialMap/macro.c.o
layer3_tl_0x4D                                    CMakeFiles/kiibohd.elf.dir/Macro/PartialMap/macro.c.o
layer3_tl_0x4E                                    CMakeFiles/kiibohd.elf.dir/Macro/PartialMap/macro.c.o
layerDebugCLIDict_DescEntry                       CMakeFiles/kiibohd.elf.dir/Macro/PartialMap/macro.c.o
layerDebugMode                                    CMakeFiles/kiibohd.elf.dir/Macro/PartialMap/macro.c.o
layerListCLIDict_DescEntry                        CMakeFiles/kiibohd.elf.dir/Macro/PartialMap/macro.c.o
layerStateCLIDict_DescEntry                       CMakeFiles/kiibohd.elf.dir/Macro/PartialMap/macro.c.o
lcdCLIDict                                        CMakeFiles/kiibohd.elf.dir/Scan/STLcd/lcd_scan.c.o
lcdCLIDictName                                    CMakeFiles/kiibohd.elf.dir/Scan/STLcd/lcd_scan.c.o
lcdCmdCLIDict_DescEntry                           CMakeFiles/kiibohd.elf.dir/Scan/STLcd/lcd_scan.c.o
lcdColorCLIDict_DescEntry                         CMakeFiles/kiibohd.elf.dir/Scan/STLcd/lcd_scan.c.o
lcdDispCLIDict_DescEntry                          CMakeFiles/kiibohd.elf.dir/Scan/STLcd/lcd_scan.c.o
lcdInitCLIDict_DescEntry                          CMakeFiles/kiibohd.elf.dir/Scan/STLcd/lcd_scan.c.o
lcdTestCLIDict_DescEntry                          CMakeFiles/kiibohd.elf.dir/Scan/STLcd/lcd_scan.c.o
ledCLIDict                                        CMakeFiles/kiibohd.elf.dir/Scan/ISSILed/led_scan.c.o
ledCLIDictName                                    CMakeFiles/kiibohd.elf.dir/Scan/ISSILed/led_scan.c.o
ledCLIDict_DescEntry                              CMakeFiles/kiibohd.elf.dir/Debug/cli/cli.c.o
ledCtrlCLIDict_DescEntry                          CMakeFiles/kiibohd.elf.dir/Scan/ISSILed/led_scan.c.o
ledRPageCLIDict_DescEntry                         CMakeFiles/kiibohd.elf.dir/Scan/ISSILed/led_scan.c.o
ledStartCLIDict_DescEntry                         CMakeFiles/kiibohd.elf.dir/Scan/ISSILed/led_scan.c.o
ledTestCLIDict_DescEntry                          CMakeFiles/kiibohd.elf.dir/Scan/ISSILed/led_scan.c.o
ledWPageCLIDict_DescEntry                         CMakeFiles/kiibohd.elf.dir/Scan/ISSILed/led_scan.c.o
ledZeroCLIDict_DescEntry                          CMakeFiles/kiibohd.elf.dir/Scan/ISSILed/led_scan.c.o
lenStr                                            CMakeFiles/kiibohd.elf.dir/Debug/print/print.c.o
                                                  CMakeFiles/kiibohd.elf.dir/Debug/cli/cli.c.o
low_voltage_isr                                   CMakeFiles/kiibohd.elf.dir/Lib/mk20dx.c.o
lptmr_isr                                         CMakeFiles/kiibohd.elf.dir/Lib/mk20dx.c.o
macroCLIDict                                      CMakeFiles/kiibohd.elf.dir/Macro/PartialMap/macro.c.o
macroCLIDictName                                  CMakeFiles/kiibohd.elf.dir/Macro/PartialMap/macro.c.o
macroDebugCLIDict_DescEntry                       CMakeFiles/kiibohd.elf.dir/Macro/PartialMap/macro.c.o
macroDebugMode                                    CMakeFiles/kiibohd.elf.dir/Macro/PartialMap/macro.c.o
macroDebugShowResult                              CMakeFiles/kiibohd.elf.dir/Macro/PartialMap/macro.c.o
macroDebugShowTrigger                             CMakeFiles/kiibohd.elf.dir/Macro/PartialMap/macro.c.o
macroInterconnectCache                            CMakeFiles/kiibohd.elf.dir/Macro/PartialMap/macro.c.o
macroInterconnectCacheSize                        CMakeFiles/kiibohd.elf.dir/Macro/PartialMap/macro.c.o
macroLayerIndexStack                              CMakeFiles/kiibohd.elf.dir/Macro/PartialMap/macro.c.o
                                                  CMakeFiles/kiibohd.elf.dir/Scan/STLcd/lcd_scan.c.o
macroLayerIndexStackSize                          CMakeFiles/kiibohd.elf.dir/Macro/PartialMap/macro.c.o
                                                  CMakeFiles/kiibohd.elf.dir/Scan/STLcd/lcd_scan.c.o
macroListCLIDict_DescEntry                        CMakeFiles/kiibohd.elf.dir/Macro/PartialMap/macro.c.o
macroPauseMode                                    CMakeFiles/kiibohd.elf.dir/Macro/PartialMap/macro.c.o
macroProcCLIDict_DescEntry                        CMakeFiles/kiibohd.elf.dir/Macro/PartialMap/macro.c.o
macroResultMacroPendingList                       CMakeFiles/kiibohd.elf.dir/Macro/PartialMap/macro.c.o
macroResultMacroPendingListSize                   CMakeFiles/kiibohd.elf.dir/Macro/PartialMap/macro.c.o
macroShowCLIDict_DescEntry                        CMakeFiles/kiibohd.elf.dir/Macro/PartialMap/macro.c.o
macroStepCLIDict_DescEntry                        CMakeFiles/kiibohd.elf.dir/Macro/PartialMap/macro.c.o
macroStepCounter                                  CMakeFiles/kiibohd.elf.dir/Macro/PartialMap/macro.c.o
macroTriggerListBuffer                            CMakeFiles/kiibohd.elf.dir/Macro/PartialMap/macro.c.o
macroTriggerListBufferSize                        CMakeFiles/kiibohd.elf.dir/Macro/PartialMap/macro.c.o
macroTriggerListLayerCache                        CMakeFiles/kiibohd.elf.dir/Macro/PartialMap/macro.c.o
macroTriggerMacroPendingList                      CMakeFiles/kiibohd.elf.dir/Macro/PartialMap/macro.c.o
macroTriggerMacroPendingListSize                  CMakeFiles/kiibohd.elf.dir/Macro/PartialMap/macro.c.o
main                                              CMakeFiles/kiibohd.elf.dir/main.c.o
                                                  CMakeFiles/kiibohd.elf.dir/Lib/mk20dx.c.o
matrixCLIDict                                     CMakeFiles/kiibohd.elf.dir/Scan/MatrixARM/matrix_scan.c.o
matrixCLIDictName                                 CMakeFiles/kiibohd.elf.dir/Scan/MatrixARM/matrix_scan.c.o
matrixCurScans                                    CMakeFiles/kiibohd.elf.dir/Scan/MatrixARM/matrix_scan.c.o
matrixDebugCLIDict_DescEntry                      CMakeFiles/kiibohd.elf.dir/Scan/MatrixARM/matrix_scan.c.o
matrixDebugMode                                   CMakeFiles/kiibohd.elf.dir/Scan/MatrixARM/matrix_scan.c.o
matrixDebugStateCounter                           CMakeFiles/kiibohd.elf.dir/Scan/MatrixARM/matrix_scan.c.o
matrixMaxScans                                    CMakeFiles/kiibohd.elf.dir/Scan/MatrixARM/matrix_scan.c.o
matrixPrevScans                                   CMakeFiles/kiibohd.elf.dir/Scan/MatrixARM/matrix_scan.c.o
matrixStateCLIDict_DescEntry                      CMakeFiles/kiibohd.elf.dir/Scan/MatrixARM/matrix_scan.c.o
mcg_isr                                           CMakeFiles/kiibohd.elf.dir/Lib/mk20dx.c.o
mcm_isr                                           CMakeFiles/kiibohd.elf.dir/Lib/mk20dx.c.o
memcmp                                            CMakeFiles/kiibohd.elf.dir/Lib/mk20dx.c.o
memcpy                                            CMakeFiles/kiibohd.elf.dir/Lib/mk20dx.c.o
                                                  CMakeFiles/kiibohd.elf.dir/Output/pjrcUSB/arm/usb_serial.c.o
                                                  CMakeFiles/kiibohd.elf.dir/Output/pjrcUSB/arm/usb_keyboard.c.o
                                                  CMakeFiles/kiibohd.elf.dir/Output/pjrcUSB/arm/usb_joystick.c.o
                                                  CMakeFiles/kiibohd.elf.dir/Scan/STLcd/lcd_scan.c.o
memmanage_fault_default_isr                       CMakeFiles/kiibohd.elf.dir/Lib/mk20dx.c.o
memmanage_fault_isr                               CMakeFiles/kiibohd.elf.dir/Lib/mk20dx.c.o
memset                                            CMakeFiles/kiibohd.elf.dir/Lib/mk20dx.c.o
                                                  CMakeFiles/kiibohd.elf.dir/Scan/UARTConnect/connect_scan.c.o
                                                  CMakeFiles/kiibohd.elf.dir/Scan/STLcd/lcd_scan.c.o
                                                  CMakeFiles/kiibohd.elf.dir/Scan/ISSILed/led_scan.c.o
micros                                            CMakeFiles/kiibohd.elf.dir/Lib/delay.c.o
nmi_default_isr                                   CMakeFiles/kiibohd.elf.dir/Lib/mk20dx.c.o
nmi_isr                                           CMakeFiles/kiibohd.elf.dir/Lib/mk20dx.c.o
numToInt                                          CMakeFiles/kiibohd.elf.dir/Debug/print/print.c.o
                                                  CMakeFiles/kiibohd.elf.dir/Output/pjrcUSB/output_com.c.o
                                                  CMakeFiles/kiibohd.elf.dir/Macro/PartialMap/macro.c.o
                                                  CMakeFiles/kiibohd.elf.dir/Scan/UARTConnect/connect_scan.c.o
                                                  CMakeFiles/kiibohd.elf.dir/Scan/STLcd/lcd_scan.c.o
                                                  CMakeFiles/kiibohd.elf.dir/Scan/MatrixARM/matrix_scan.c.o
                                                  CMakeFiles/kiibohd.elf.dir/Scan/ISSILed/led_scan.c.o
nvic_execution_priority                           CMakeFiles/kiibohd.elf.dir/Lib/mk20dx.c.o
outputCLIDict                                     CMakeFiles/kiibohd.elf.dir/Output/pjrcUSB/output_com.c.o
outputCLIDictName                                 CMakeFiles/kiibohd.elf.dir/Output/pjrcUSB/output_com.c.o
outputDebugCLIDict_DescEntry                      CMakeFiles/kiibohd.elf.dir/Output/pjrcUSB/output_com.c.o
pdb_isr                                           CMakeFiles/kiibohd.elf.dir/Lib/mk20dx.c.o
pendablesrvreq_isr                                CMakeFiles/kiibohd.elf.dir/Lib/mk20dx.c.o
pit0_isr                                          CMakeFiles/kiibohd.elf.dir/Lib/mk20dx.c.o
pit1_isr                                          CMakeFiles/kiibohd.elf.dir/Lib/mk20dx.c.o
pit2_isr                                          CMakeFiles/kiibohd.elf.dir/Lib/mk20dx.c.o
pit3_isr                                          CMakeFiles/kiibohd.elf.dir/Lib/mk20dx.c.o
porta_isr                                         CMakeFiles/kiibohd.elf.dir/Lib/mk20dx.c.o
portb_isr                                         CMakeFiles/kiibohd.elf.dir/Lib/mk20dx.c.o
portc_isr                                         CMakeFiles/kiibohd.elf.dir/Lib/mk20dx.c.o
portd_isr                                         CMakeFiles/kiibohd.elf.dir/Lib/mk20dx.c.o
porte_isr                                         CMakeFiles/kiibohd.elf.dir/Lib/mk20dx.c.o
printHex32_op                                     CMakeFiles/kiibohd.elf.dir/Debug/print/print.c.o
                                                  CMakeFiles/kiibohd.elf.dir/Debug/cli/cli.c.o
                                                  CMakeFiles/kiibohd.elf.dir/Scan/UARTConnect/connect_scan.c.o
                                                  CMakeFiles/kiibohd.elf.dir/Lib/mk20dx.c.o
printHex_op                                       CMakeFiles/kiibohd.elf.dir/Debug/print/print.c.o
                                                  CMakeFiles/kiibohd.elf.dir/Debug/cli/cli.c.o
                                                  CMakeFiles/kiibohd.elf.dir/Output/pjrcUSB/arm/usb_keyboard.c.o
                                                  CMakeFiles/kiibohd.elf.dir/Output/pjrcUSB/arm/usb_dev.c.o
                                                  CMakeFiles/kiibohd.elf.dir/Output/pjrcUSB/output_com.c.o
                                                  CMakeFiles/kiibohd.elf.dir/Macro/PartialMap/macro.c.o
                                                  CMakeFiles/kiibohd.elf.dir/Scan/UARTConnect/connect_scan.c.o
                                                  CMakeFiles/kiibohd.elf.dir/Scan/STLcd/lcd_scan.c.o
                                                  CMakeFiles/kiibohd.elf.dir/Scan/MatrixARM/matrix_scan.c.o
                                                  CMakeFiles/kiibohd.elf.dir/Scan/ISSILed/led_scan.c.o
printInt16                                        CMakeFiles/kiibohd.elf.dir/Debug/print/print.c.o
                                                  CMakeFiles/kiibohd.elf.dir/Macro/PartialMap/macro.c.o
printInt32                                        CMakeFiles/kiibohd.elf.dir/Debug/print/print.c.o
printInt8                                         CMakeFiles/kiibohd.elf.dir/Debug/print/print.c.o
                                                  CMakeFiles/kiibohd.elf.dir/Output/pjrcUSB/output_com.c.o
                                                  CMakeFiles/kiibohd.elf.dir/Macro/PartialMap/macro.c.o
                                                  CMakeFiles/kiibohd.elf.dir/Scan/UARTConnect/connect_scan.c.o
                                                  CMakeFiles/kiibohd.elf.dir/Scan/MatrixARM/matrix_scan.c.o
printstrs                                         CMakeFiles/kiibohd.elf.dir/Debug/print/print.c.o
                                                  CMakeFiles/kiibohd.elf.dir/Debug/cli/cli.c.o
readLEDsCLIDict_DescEntry                         CMakeFiles/kiibohd.elf.dir/Output/pjrcUSB/output_com.c.o
reloadCLIDict_DescEntry                           CMakeFiles/kiibohd.elf.dir/Debug/cli/cli.c.o
resetCLIDict_DescEntry                            CMakeFiles/kiibohd.elf.dir/Debug/cli/cli.c.o
restartCLIDict_DescEntry                          CMakeFiles/kiibohd.elf.dir/Debug/cli/cli.c.o
revsStr                                           CMakeFiles/kiibohd.elf.dir/Debug/print/print.c.o
rm0_guide                                         CMakeFiles/kiibohd.elf.dir/Macro/PartialMap/macro.c.o
rm100_guide                                       CMakeFiles/kiibohd.elf.dir/Macro/PartialMap/macro.c.o
rm101_guide                                       CMakeFiles/kiibohd.elf.dir/Macro/PartialMap/macro.c.o
rm102_guide                                       CMakeFiles/kiibohd.elf.dir/Macro/PartialMap/macro.c.o
rm103_guide                                       CMakeFiles/kiibohd.elf.dir/Macro/PartialMap/macro.c.o
rm104_guide                                       CMakeFiles/kiibohd.elf.dir/Macro/PartialMap/macro.c.o
rm105_guide                                       CMakeFiles/kiibohd.elf.dir/Macro/PartialMap/macro.c.o
rm106_guide                                       CMakeFiles/kiibohd.elf.dir/Macro/PartialMap/macro.c.o
rm107_guide                                       CMakeFiles/kiibohd.elf.dir/Macro/PartialMap/macro.c.o
rm108_guide                                       CMakeFiles/kiibohd.elf.dir/Macro/PartialMap/macro.c.o
rm109_guide                                       CMakeFiles/kiibohd.elf.dir/Macro/PartialMap/macro.c.o
rm10_guide                                        CMakeFiles/kiibohd.elf.dir/Macro/PartialMap/macro.c.o
rm110_guide                                       CMakeFiles/kiibohd.elf.dir/Macro/PartialMap/macro.c.o
rm111_guide                                       CMakeFiles/kiibohd.elf.dir/Macro/PartialMap/macro.c.o
rm11_guide                                        CMakeFiles/kiibohd.elf.dir/Macro/PartialMap/macro.c.o
rm12_guide                                        CMakeFiles/kiibohd.elf.dir/Macro/PartialMap/macro.c.o
rm13_guide                                        CMakeFiles/kiibohd.elf.dir/Macro/PartialMap/macro.c.o
rm14_guide                                        CMakeFiles/kiibohd.elf.dir/Macro/PartialMap/macro.c.o
rm15_guide                                        CMakeFiles/kiibohd.elf.dir/Macro/PartialMap/macro.c.o
rm16_guide                                        CMakeFiles/kiibohd.elf.dir/Macro/PartialMap/macro.c.o
rm17_guide                                        CMakeFiles/kiibohd.elf.dir/Macro/PartialMap/macro.c.o
rm18_guide                                        CMakeFiles/kiibohd.elf.dir/Macro/PartialMap/macro.c.o
rm19_guide                                        CMakeFiles/kiibohd.elf.dir/Macro/PartialMap/macro.c.o
rm1_guide                                         CMakeFiles/kiibohd.elf.dir/Macro/PartialMap/macro.c.o
rm20_guide                                        CMakeFiles/kiibohd.elf.dir/Macro/PartialMap/macro.c.o
rm21_guide                                        CMakeFiles/kiibohd.elf.dir/Macro/PartialMap/macro.c.o
rm22_guide                                        CMakeFiles/kiibohd.elf.dir/Macro/PartialMap/macro.c.o
rm23_guide                                        CMakeFiles/kiibohd.elf.dir/Macro/PartialMap/macro.c.o
rm24_guide                                        CMakeFiles/kiibohd.elf.dir/Macro/PartialMap/macro.c.o
rm25_guide                                        CMakeFiles/kiibohd.elf.dir/Macro/PartialMap/macro.c.o
rm26_guide                                        CMakeFiles/kiibohd.elf.dir/Macro/PartialMap/macro.c.o
rm27_guide                                        CMakeFiles/kiibohd.elf.dir/Macro/PartialMap/macro.c.o
rm28_guide                                        CMakeFiles/kiibohd.elf.dir/Macro/PartialMap/macro.c.o
rm29_guide                                        CMakeFiles/kiibohd.elf.dir/Macro/PartialMap/macro.c.o
rm2_guide                                         CMakeFiles/kiibohd.elf.dir/Macro/PartialMap/macro.c.o
rm30_guide                                        CMakeFiles/kiibohd.elf.dir/Macro/PartialMap/macro.c.o
rm31_guide                                        CMakeFiles/kiibohd.elf.dir/Macro/PartialMap/macro.c.o
rm32_guide                                        CMakeFiles/kiibohd.elf.dir/Macro/PartialMap/macro.c.o
rm33_guide                                        CMakeFiles/kiibohd.elf.dir/Macro/PartialMap/macro.c.o
rm34_guide                                        CMakeFiles/kiibohd.elf.dir/Macro/PartialMap/macro.c.o
rm35_guide                                        CMakeFiles/kiibohd.elf.dir/Macro/PartialMap/macro.c.o
rm36_guide                                        CMakeFiles/kiibohd.elf.dir/Macro/PartialMap/macro.c.o
rm37_guide                                        CMakeFiles/kiibohd.elf.dir/Macro/PartialMap/macro.c.o
rm38_guide                                        CMakeFiles/kiibohd.elf.dir/Macro/PartialMap/macro.c.o
rm39_guide                                        CMakeFiles/kiibohd.elf.dir/Macro/PartialMap/macro.c.o
rm3_guide                                         CMakeFiles/kiibohd.elf.dir/Macro/PartialMap/macro.c.o
rm40_guide                                        CMakeFiles/kiibohd.elf.dir/Macro/PartialMap/macro.c.o
rm41_guide                                        CMakeFiles/kiibohd.elf.dir/Macro/PartialMap/macro.c.o
rm42_guide                                        CMakeFiles/kiibohd.elf.dir/Macro/PartialMap/macro.c.o
rm43_guide                                        CMakeFiles/kiibohd.elf.dir/Macro/PartialMap/macro.c.o
rm44_guide                                        CMakeFiles/kiibohd.elf.dir/Macro/PartialMap/macro.c.o
rm45_guide                                        CMakeFiles/kiibohd.elf.dir/Macro/PartialMap/macro.c.o
rm46_guide                                        CMakeFiles/kiibohd.elf.dir/Macro/PartialMap/macro.c.o
rm47_guide                                        CMakeFiles/kiibohd.elf.dir/Macro/PartialMap/macro.c.o
rm48_guide                                        CMakeFiles/kiibohd.elf.dir/Macro/PartialMap/macro.c.o
rm49_guide                                        CMakeFiles/kiibohd.elf.dir/Macro/PartialMap/macro.c.o
rm4_guide                                         CMakeFiles/kiibohd.elf.dir/Macro/PartialMap/macro.c.o
rm50_guide                                        CMakeFiles/kiibohd.elf.dir/Macro/PartialMap/macro.c.o
rm51_guide                                        CMakeFiles/kiibohd.elf.dir/Macro/PartialMap/macro.c.o
rm52_guide                                        CMakeFiles/kiibohd.elf.dir/Macro/PartialMap/macro.c.o
rm53_guide                                        CMakeFiles/kiibohd.elf.dir/Macro/PartialMap/macro.c.o
rm54_guide                                        CMakeFiles/kiibohd.elf.dir/Macro/PartialMap/macro.c.o
rm55_guide                                        CMakeFiles/kiibohd.elf.dir/Macro/PartialMap/macro.c.o
rm56_guide                                        CMakeFiles/kiibohd.elf.dir/Macro/PartialMap/macro.c.o
rm57_guide                                        CMakeFiles/kiibohd.elf.dir/Macro/PartialMap/macro.c.o
rm58_guide                                        CMakeFiles/kiibohd.elf.dir/Macro/PartialMap/macro.c.o
rm59_guide                                        CMakeFiles/kiibohd.elf.dir/Macro/PartialMap/macro.c.o
rm5_guide                                         CMakeFiles/kiibohd.elf.dir/Macro/PartialMap/macro.c.o
rm60_guide                                        CMakeFiles/kiibohd.elf.dir/Macro/PartialMap/macro.c.o
rm61_guide                                        CMakeFiles/kiibohd.elf.dir/Macro/PartialMap/macro.c.o
rm62_guide                                        CMakeFiles/kiibohd.elf.dir/Macro/PartialMap/macro.c.o
rm63_guide                                        CMakeFiles/kiibohd.elf.dir/Macro/PartialMap/macro.c.o
rm64_guide                                        CMakeFiles/kiibohd.elf.dir/Macro/PartialMap/macro.c.o
rm65_guide                                        CMakeFiles/kiibohd.elf.dir/Macro/PartialMap/macro.c.o
rm66_guide                                        CMakeFiles/kiibohd.elf.dir/Macro/PartialMap/macro.c.o
rm67_guide                                        CMakeFiles/kiibohd.elf.dir/Macro/PartialMap/macro.c.o
rm68_guide                                        CMakeFiles/kiibohd.elf.dir/Macro/PartialMap/macro.c.o
rm69_guide                                        CMakeFiles/kiibohd.elf.dir/Macro/PartialMap/macro.c.o
rm6_guide                                         CMakeFiles/kiibohd.elf.dir/Macro/PartialMap/macro.c.o
rm70_guide                                        CMakeFiles/kiibohd.elf.dir/Macro/PartialMap/macro.c.o
rm71_guide                                        CMakeFiles/kiibohd.elf.dir/Macro/PartialMap/macro.c.o
rm72_guide                                        CMakeFiles/kiibohd.elf.dir/Macro/PartialMap/macro.c.o
rm73_guide                                        CMakeFiles/kiibohd.elf.dir/Macro/PartialMap/macro.c.o
rm74_guide                                        CMakeFiles/kiibohd.elf.dir/Macro/PartialMap/macro.c.o
rm75_guide                                        CMakeFiles/kiibohd.elf.dir/Macro/PartialMap/macro.c.o
rm76_guide                                        CMakeFiles/kiibohd.elf.dir/Macro/PartialMap/macro.c.o
rm77_guide                                        CMakeFiles/kiibohd.elf.dir/Macro/PartialMap/macro.c.o
rm78_guide                                        CMakeFiles/kiibohd.elf.dir/Macro/PartialMap/macro.c.o
rm79_guide                                        CMakeFiles/kiibohd.elf.dir/Macro/PartialMap/macro.c.o
rm7_guide                                         CMakeFiles/kiibohd.elf.dir/Macro/PartialMap/macro.c.o
rm80_guide                                        CMakeFiles/kiibohd.elf.dir/Macro/PartialMap/macro.c.o
rm81_guide                                        CMakeFiles/kiibohd.elf.dir/Macro/PartialMap/macro.c.o
rm82_guide                                        CMakeFiles/kiibohd.elf.dir/Macro/PartialMap/macro.c.o
rm83_guide                                        CMakeFiles/kiibohd.elf.dir/Macro/PartialMap/macro.c.o
rm84_guide                                        CMakeFiles/kiibohd.elf.dir/Macro/PartialMap/macro.c.o
rm85_guide                                        CMakeFiles/kiibohd.elf.dir/Macro/PartialMap/macro.c.o
rm86_guide                                        CMakeFiles/kiibohd.elf.dir/Macro/PartialMap/macro.c.o
rm87_guide                                        CMakeFiles/kiibohd.elf.dir/Macro/PartialMap/macro.c.o
rm88_guide                                        CMakeFiles/kiibohd.elf.dir/Macro/PartialMap/macro.c.o
rm89_guide                                        CMakeFiles/kiibohd.elf.dir/Macro/PartialMap/macro.c.o
rm8_guide                                         CMakeFiles/kiibohd.elf.dir/Macro/PartialMap/macro.c.o
rm90_guide                                        CMakeFiles/kiibohd.elf.dir/Macro/PartialMap/macro.c.o
rm91_guide                                        CMakeFiles/kiibohd.elf.dir/Macro/PartialMap/macro.c.o
rm92_guide                                        CMakeFiles/kiibohd.elf.dir/Macro/PartialMap/macro.c.o
rm93_guide                                        CMakeFiles/kiibohd.elf.dir/Macro/PartialMap/macro.c.o
rm94_guide                                        CMakeFiles/kiibohd.elf.dir/Macro/PartialMap/macro.c.o
rm95_guide                                        CMakeFiles/kiibohd.elf.dir/Macro/PartialMap/macro.c.o
rm96_guide                                        CMakeFiles/kiibohd.elf.dir/Macro/PartialMap/macro.c.o
rm97_guide                                        CMakeFiles/kiibohd.elf.dir/Macro/PartialMap/macro.c.o
rm98_guide                                        CMakeFiles/kiibohd.elf.dir/Macro/PartialMap/macro.c.o
rm99_guide                                        CMakeFiles/kiibohd.elf.dir/Macro/PartialMap/macro.c.o
rm9_guide                                         CMakeFiles/kiibohd.elf.dir/Macro/PartialMap/macro.c.o
rtc_alarm_isr                                     CMakeFiles/kiibohd.elf.dir/Lib/mk20dx.c.o
rtc_seconds_isr                                   CMakeFiles/kiibohd.elf.dir/Lib/mk20dx.c.o
sdhc_isr                                          CMakeFiles/kiibohd.elf.dir/Lib/mk20dx.c.o
sendKeysCLIDict_DescEntry                         CMakeFiles/kiibohd.elf.dir/Output/pjrcUSB/output_com.c.o
setKeysCLIDict_DescEntry                          CMakeFiles/kiibohd.elf.dir/Output/pjrcUSB/output_com.c.o
setModCLIDict_DescEntry                           CMakeFiles/kiibohd.elf.dir/Output/pjrcUSB/output_com.c.o
software_isr                                      CMakeFiles/kiibohd.elf.dir/Lib/mk20dx.c.o
spi0_isr                                          CMakeFiles/kiibohd.elf.dir/Lib/mk20dx.c.o
spi1_isr                                          CMakeFiles/kiibohd.elf.dir/Lib/mk20dx.c.o
spi2_isr                                          CMakeFiles/kiibohd.elf.dir/Lib/mk20dx.c.o
string0                                           CMakeFiles/kiibohd.elf.dir/Output/pjrcUSB/arm/usb_desc.c.o
svcall_isr                                        CMakeFiles/kiibohd.elf.dir/Lib/mk20dx.c.o
sys_reset_to_loader_magic                         CMakeFiles/kiibohd.elf.dir/Lib/mk20dx.c.o
                                                  CMakeFiles/kiibohd.elf.dir/Output/pjrcUSB/arm/usb_dev.c.o
systick_default_isr                               CMakeFiles/kiibohd.elf.dir/Lib/mk20dx.c.o
systick_isr                                       CMakeFiles/kiibohd.elf.dir/Lib/mk20dx.c.o
systick_millis_count                              CMakeFiles/kiibohd.elf.dir/Lib/delay.c.o
                                                  CMakeFiles/kiibohd.elf.dir/Scan/UARTConnect/connect_scan.c.o
                                                  CMakeFiles/kiibohd.elf.dir/Scan/MatrixARM/matrix_scan.c.o
                                                  CMakeFiles/kiibohd.elf.dir/Scan/ISSILed/led_scan.c.o
                                                  CMakeFiles/kiibohd.elf.dir/Lib/mk20dx.c.o
tm0_guide                                         CMakeFiles/kiibohd.elf.dir/Macro/PartialMap/macro.c.o
tm100_guide                                       CMakeFiles/kiibohd.elf.dir/Macro/PartialMap/macro.c.o
tm101_guide                                       CMakeFiles/kiibohd.elf.dir/Macro/PartialMap/macro.c.o
tm102_guide                                       CMakeFiles/kiibohd.elf.dir/Macro/PartialMap/macro.c.o
tm103_guide                                       CMakeFiles/kiibohd.elf.dir/Macro/PartialMap/macro.c.o
tm104_guide                                       CMakeFiles/kiibohd.elf.dir/Macro/PartialMap/macro.c.o
tm105_guide                                       CMakeFiles/kiibohd.elf.dir/Macro/PartialMap/macro.c.o
tm106_guide                                       CMakeFiles/kiibohd.elf.dir/Macro/PartialMap/macro.c.o
tm107_guide                                       CMakeFiles/kiibohd.elf.dir/Macro/PartialMap/macro.c.o
tm108_guide                                       CMakeFiles/kiibohd.elf.dir/Macro/PartialMap/macro.c.o
tm109_guide                                       CMakeFiles/kiibohd.elf.dir/Macro/PartialMap/macro.c.o
tm10_guide                                        CMakeFiles/kiibohd.elf.dir/Macro/PartialMap/macro.c.o
tm110_guide                                       CMakeFiles/kiibohd.elf.dir/Macro/PartialMap/macro.c.o
tm111_guide                                       CMakeFiles/kiibohd.elf.dir/Macro/PartialMap/macro.c.o
tm112_guide                                       CMakeFiles/kiibohd.elf.dir/Macro/PartialMap/macro.c.o
tm113_guide                                       CMakeFiles/kiibohd.elf.dir/Macro/PartialMap/macro.c.o
tm114_guide                                       CMakeFiles/kiibohd.elf.dir/Macro/PartialMap/macro.c.o
tm115_guide                                       CMakeFiles/kiibohd.elf.dir/Macro/PartialMap/macro.c.o
tm116_guide                                       CMakeFiles/kiibohd.elf.dir/Macro/PartialMap/macro.c.o
tm117_guide                                       CMakeFiles/kiibohd.elf.dir/Macro/PartialMap/macro.c.o
tm118_guide                                       CMakeFiles/kiibohd.elf.dir/Macro/PartialMap/macro.c.o
tm119_guide                                       CMakeFiles/kiibohd.elf.dir/Macro/PartialMap/macro.c.o
tm11_guide                                        CMakeFiles/kiibohd.elf.dir/Macro/PartialMap/macro.c.o
tm120_guide                                       CMakeFiles/kiibohd.elf.dir/Macro/PartialMap/macro.c.o
tm121_guide                                       CMakeFiles/kiibohd.elf.dir/Macro/PartialMap/macro.c.o
tm122_guide                                       CMakeFiles/kiibohd.elf.dir/Macro/PartialMap/macro.c.o
tm123_guide                                       CMakeFiles/kiibohd.elf.dir/Macro/PartialMap/macro.c.o
tm124_guide                                       CMakeFiles/kiibohd.elf.dir/Macro/PartialMap/macro.c.o
tm125_guide                                       CMakeFiles/kiibohd.elf.dir/Macro/PartialMap/macro.c.o
tm126_guide                                       CMakeFiles/kiibohd.elf.dir/Macro/PartialMap/macro.c.o
tm127_guide                                       CMakeFiles/kiibohd.elf.dir/Macro/PartialMap/macro.c.o
tm128_guide                                       CMakeFiles/kiibohd.elf.dir/Macro/PartialMap/macro.c.o
tm129_guide                                       CMakeFiles/kiibohd.elf.dir/Macro/PartialMap/macro.c.o
tm12_guide                                        CMakeFiles/kiibohd.elf.dir/Macro/PartialMap/macro.c.o
tm130_guide                                       CMakeFiles/kiibohd.elf.dir/Macro/PartialMap/macro.c.o
tm131_guide                                       CMakeFiles/kiibohd.elf.dir/Macro/PartialMap/macro.c.o
tm132_guide                                       CMakeFiles/kiibohd.elf.dir/Macro/PartialMap/macro.c.o
tm133_guide                                       CMakeFiles/kiibohd.elf.dir/Macro/PartialMap/macro.c.o
tm134_guide                                       CMakeFiles/kiibohd.elf.dir/Macro/PartialMap/macro.c.o
tm135_guide                                       CMakeFiles/kiibohd.elf.dir/Macro/PartialMap/macro.c.o
tm136_guide                                       CMakeFiles/kiibohd.elf.dir/Macro/PartialMap/macro.c.o
tm137_guide                                       CMakeFiles/kiibohd.elf.dir/Macro/PartialMap/macro.c.o
tm138_guide                                       CMakeFiles/kiibohd.elf.dir/Macro/PartialMap/macro.c.o
tm139_guide                                       CMakeFiles/kiibohd.elf.dir/Macro/PartialMap/macro.c.o
tm13_guide                                        CMakeFiles/kiibohd.elf.dir/Macro/PartialMap/macro.c.o
tm140_guide                                       CMakeFiles/kiibohd.elf.dir/Macro/PartialMap/macro.c.o
tm14_guide                                        CMakeFiles/kiibohd.elf.dir/Macro/PartialMap/macro.c.o
tm15_guide                                        CMakeFiles/kiibohd.elf.dir/Macro/PartialMap/macro.c.o
tm16_guide                                        CMakeFiles/kiibohd.elf.dir/Macro/PartialMap/macro.c.o
tm17_guide                                        CMakeFiles/kiibohd.elf.dir/Macro/PartialMap/macro.c.o
tm18_guide                                        CMakeFiles/kiibohd.elf.dir/Macro/PartialMap/macro.c.o
tm19_guide                                        CMakeFiles/kiibohd.elf.dir/Macro/PartialMap/macro.c.o
tm1_guide                                         CMakeFiles/kiibohd.elf.dir/Macro/PartialMap/macro.c.o
tm20_guide                                        CMakeFiles/kiibohd.elf.dir/Macro/PartialMap/macro.c.o
tm21_guide                                        CMakeFiles/kiibohd.elf.dir/Macro/PartialMap/macro.c.o
tm22_guide                                        CMakeFiles/kiibohd.elf.dir/Macro/PartialMap/macro.c.o
tm23_guide                                        CMakeFiles/kiibohd.elf.dir/Macro/PartialMap/macro.c.o
tm24_guide                                        CMakeFiles/kiibohd.elf.dir/Macro/PartialMap/macro.c.o
tm25_guide                                        CMakeFiles/kiibohd.elf.dir/Macro/PartialMap/macro.c.o
tm26_guide                                        CMakeFiles/kiibohd.elf.dir/Macro/PartialMap/macro.c.o
tm27_guide                                        CMakeFiles/kiibohd.elf.dir/Macro/PartialMap/macro.c.o
tm28_guide                                        CMakeFiles/kiibohd.elf.dir/Macro/PartialMap/macro.c.o
tm29_guide                                        CMakeFiles/kiibohd.elf.dir/Macro/PartialMap/macro.c.o
tm2_guide                                         CMakeFiles/kiibohd.elf.dir/Macro/PartialMap/macro.c.o
tm30_guide                                        CMakeFiles/kiibohd.elf.dir/Macro/PartialMap/macro.c.o
tm31_guide                                        CMakeFiles/kiibohd.elf.dir/Macro/PartialMap/macro.c.o
tm32_guide                                        CMakeFiles/kiibohd.elf.dir/Macro/PartialMap/macro.c.o
tm33_guide                                        CMakeFiles/kiibohd.elf.dir/Macro/PartialMap/macro.c.o
tm34_guide                                        CMakeFiles/kiibohd.elf.dir/Macro/PartialMap/macro.c.o
tm35_guide                                        CMakeFiles/kiibohd.elf.dir/Macro/PartialMap/macro.c.o
tm36_guide                                        CMakeFiles/kiibohd.elf.dir/Macro/PartialMap/macro.c.o
tm37_guide                                        CMakeFiles/kiibohd.elf.dir/Macro/PartialMap/macro.c.o
tm38_guide                                        CMakeFiles/kiibohd.elf.dir/Macro/PartialMap/macro.c.o
tm39_guide                                        CMakeFiles/kiibohd.elf.dir/Macro/PartialMap/macro.c.o
tm3_guide                                         CMakeFiles/kiibohd.elf.dir/Macro/PartialMap/macro.c.o
tm40_guide                                        CMakeFiles/kiibohd.elf.dir/Macro/PartialMap/macro.c.o
tm41_guide                                        CMakeFiles/kiibohd.elf.dir/Macro/PartialMap/macro.c.o
tm42_guide                                        CMakeFiles/kiibohd.elf.dir/Macro/PartialMap/macro.c.o
tm43_guide                                        CMakeFiles/kiibohd.elf.dir/Macro/PartialMap/macro.c.o
tm44_guide                                        CMakeFiles/kiibohd.elf.dir/Macro/PartialMap/macro.c.o
tm45_guide                                        CMakeFiles/kiibohd.elf.dir/Macro/PartialMap/macro.c.o
tm46_guide                                        CMakeFiles/kiibohd.elf.dir/Macro/PartialMap/macro.c.o
tm47_guide                                        CMakeFiles/kiibohd.elf.dir/Macro/PartialMap/macro.c.o
tm48_guide                                        CMakeFiles/kiibohd.elf.dir/Macro/PartialMap/macro.c.o
tm49_guide                                        CMakeFiles/kiibohd.elf.dir/Macro/PartialMap/macro.c.o
tm4_guide                                         CMakeFiles/kiibohd.elf.dir/Macro/PartialMap/macro.c.o
tm50_guide                                        CMakeFiles/kiibohd.elf.dir/Macro/PartialMap/macro.c.o
tm51_guide                                        CMakeFiles/kiibohd.elf.dir/Macro/PartialMap/macro.c.o
tm52_guide                                        CMakeFiles/kiibohd.elf.dir/Macro/PartialMap/macro.c.o
tm53_guide                                        CMakeFiles/kiibohd.elf.dir/Macro/PartialMap/macro.c.o
tm54_guide                                        CMakeFiles/kiibohd.elf.dir/Macro/PartialMap/macro.c.o
tm55_guide                                        CMakeFiles/kiibohd.elf.dir/Macro/PartialMap/macro.c.o
tm56_guide                                        CMakeFiles/kiibohd.elf.dir/Macro/PartialMap/macro.c.o
tm57_guide                                        CMakeFiles/kiibohd.elf.dir/Macro/PartialMap/macro.c.o
tm58_guide                                        CMakeFiles/kiibohd.elf.dir/Macro/PartialMap/macro.c.o
tm59_guide                                        CMakeFiles/kiibohd.elf.dir/Macro/PartialMap/macro.c.o
tm5_guide                                         CMakeFiles/kiibohd.elf.dir/Macro/PartialMap/macro.c.o
tm60_guide                                        CMakeFiles/kiibohd.elf.dir/Macro/PartialMap/macro.c.o
tm61_guide                                        CMakeFiles/kiibohd.elf.dir/Macro/PartialMap/macro.c.o
tm62_guide                                        CMakeFiles/kiibohd.elf.dir/Macro/PartialMap/macro.c.o
tm63_guide                                        CMakeFiles/kiibohd.elf.dir/Macro/PartialMap/macro.c.o
tm64_guide                                        CMakeFiles/kiibohd.elf.dir/Macro/PartialMap/macro.c.o
tm65_guide                                        CMakeFiles/kiibohd.elf.dir/Macro/PartialMap/macro.c.o
tm66_guide                                        CMakeFiles/kiibohd.elf.dir/Macro/PartialMap/macro.c.o
tm67_guide                                        CMakeFiles/kiibohd.elf.dir/Macro/PartialMap/macro.c.o
tm68_guide                                        CMakeFiles/kiibohd.elf.dir/Macro/PartialMap/macro.c.o
tm69_guide                                        CMakeFiles/kiibohd.elf.dir/Macro/PartialMap/macro.c.o
tm6_guide                                         CMakeFiles/kiibohd.elf.dir/Macro/PartialMap/macro.c.o
tm70_guide                                        CMakeFiles/kiibohd.elf.dir/Macro/PartialMap/macro.c.o
tm71_guide                                        CMakeFiles/kiibohd.elf.dir/Macro/PartialMap/macro.c.o
tm72_guide                                        CMakeFiles/kiibohd.elf.dir/Macro/PartialMap/macro.c.o
tm73_guide                                        CMakeFiles/kiibohd.elf.dir/Macro/PartialMap/macro.c.o
tm74_guide                                        CMakeFiles/kiibohd.elf.dir/Macro/PartialMap/macro.c.o
tm75_guide                                        CMakeFiles/kiibohd.elf.dir/Macro/PartialMap/macro.c.o
tm76_guide                                        CMakeFiles/kiibohd.elf.dir/Macro/PartialMap/macro.c.o
tm77_guide                                        CMakeFiles/kiibohd.elf.dir/Macro/PartialMap/macro.c.o
tm78_guide                                        CMakeFiles/kiibohd.elf.dir/Macro/PartialMap/macro.c.o
tm79_guide                                        CMakeFiles/kiibohd.elf.dir/Macro/PartialMap/macro.c.o
tm7_guide                                         CMakeFiles/kiibohd.elf.dir/Macro/PartialMap/macro.c.o
tm80_guide                                        CMakeFiles/kiibohd.elf.dir/Macro/PartialMap/macro.c.o
tm81_guide                                        CMakeFiles/kiibohd.elf.dir/Macro/PartialMap/macro.c.o
tm82_guide                                        CMakeFiles/kiibohd.elf.dir/Macro/PartialMap/macro.c.o
tm83_guide                                        CMakeFiles/kiibohd.elf.dir/Macro/PartialMap/macro.c.o
tm84_guide                                        CMakeFiles/kiibohd.elf.dir/Macro/PartialMap/macro.c.o
tm85_guide                                        CMakeFiles/kiibohd.elf.dir/Macro/PartialMap/macro.c.o
tm86_guide                                        CMakeFiles/kiibohd.elf.dir/Macro/PartialMap/macro.c.o
tm87_guide                                        CMakeFiles/kiibohd.elf.dir/Macro/PartialMap/macro.c.o
tm88_guide                                        CMakeFiles/kiibohd.elf.dir/Macro/PartialMap/macro.c.o
tm89_guide                                        CMakeFiles/kiibohd.elf.dir/Macro/PartialMap/macro.c.o
tm8_guide                                         CMakeFiles/kiibohd.elf.dir/Macro/PartialMap/macro.c.o
tm90_guide                                        CMakeFiles/kiibohd.elf.dir/Macro/PartialMap/macro.c.o
tm91_guide                                        CMakeFiles/kiibohd.elf.dir/Macro/PartialMap/macro.c.o
tm92_guide                                        CMakeFiles/kiibohd.elf.dir/Macro/PartialMap/macro.c.o
tm93_guide                                        CMakeFiles/kiibohd.elf.dir/Macro/PartialMap/macro.c.o
tm94_guide                                        CMakeFiles/kiibohd.elf.dir/Macro/PartialMap/macro.c.o
tm95_guide                                        CMakeFiles/kiibohd.elf.dir/Macro/PartialMap/macro.c.o
tm96_guide                                        CMakeFiles/kiibohd.elf.dir/Macro/PartialMap/macro.c.o
tm97_guide                                        CMakeFiles/kiibohd.elf.dir/Macro/PartialMap/macro.c.o
tm98_guide                                        CMakeFiles/kiibohd.elf.dir/Macro/PartialMap/macro.c.o
tm99_guide                                        CMakeFiles/kiibohd.elf.dir/Macro/PartialMap/macro.c.o
tm9_guide                                         CMakeFiles/kiibohd.elf.dir/Macro/PartialMap/macro.c.o
tsi0_isr                                          CMakeFiles/kiibohd.elf.dir/Lib/mk20dx.c.o
uart0_error_isr                                   CMakeFiles/kiibohd.elf.dir/Lib/mk20dx.c.o
uart0_lon_isr                                     CMakeFiles/kiibohd.elf.dir/Lib/mk20dx.c.o
uart0_status_isr                                  CMakeFiles/kiibohd.elf.dir/Lib/mk20dx.c.o
uart1_error_isr                                   CMakeFiles/kiibohd.elf.dir/Lib/mk20dx.c.o
uart1_status_isr                                  CMakeFiles/kiibohd.elf.dir/Lib/mk20dx.c.o
uart2_error_isr                                   CMakeFiles/kiibohd.elf.dir/Lib/mk20dx.c.o
uart2_status_isr                                  CMakeFiles/kiibohd.elf.dir/Lib/mk20dx.c.o
uart3_error_isr                                   CMakeFiles/kiibohd.elf.dir/Lib/mk20dx.c.o
uart3_status_isr                                  CMakeFiles/kiibohd.elf.dir/Lib/mk20dx.c.o
uart4_error_isr                                   CMakeFiles/kiibohd.elf.dir/Lib/mk20dx.c.o
uart4_status_isr                                  CMakeFiles/kiibohd.elf.dir/Lib/mk20dx.c.o
uart5_error_isr                                   CMakeFiles/kiibohd.elf.dir/Lib/mk20dx.c.o
uart5_status_isr                                  CMakeFiles/kiibohd.elf.dir/Lib/mk20dx.c.o
uartConnectCLIDict                                CMakeFiles/kiibohd.elf.dir/Scan/UARTConnect/connect_scan.c.o
uartConnectCLIDictName                            CMakeFiles/kiibohd.elf.dir/Scan/UARTConnect/connect_scan.c.o
uart_rx_buf                                       CMakeFiles/kiibohd.elf.dir/Scan/UARTConnect/connect_scan.c.o
uart_rx_status                                    CMakeFiles/kiibohd.elf.dir/Scan/UARTConnect/connect_scan.c.o
uart_tx_buf                                       CMakeFiles/kiibohd.elf.dir/Scan/UARTConnect/connect_scan.c.o
uart_tx_status                                    CMakeFiles/kiibohd.elf.dir/Scan/UARTConnect/connect_scan.c.o
uarts_configured                                  CMakeFiles/kiibohd.elf.dir/Scan/UARTConnect/connect_scan.c.o
unused_isr                                        CMakeFiles/kiibohd.elf.dir/Lib/mk20dx.c.o
usage_fault_default_isr                           CMakeFiles/kiibohd.elf.dir/Lib/mk20dx.c.o
usage_fault_isr                                   CMakeFiles/kiibohd.elf.dir/Lib/mk20dx.c.o
usb_buffer_memory                                 CMakeFiles/kiibohd.elf.dir/Output/pjrcUSB/arm/usb_mem.c.o
usb_cdc_line_coding                               CMakeFiles/kiibohd.elf.dir/Output/pjrcUSB/arm/usb_serial.c.o
                                                  CMakeFiles/kiibohd.elf.dir/Output/pjrcUSB/arm/usb_dev.c.o
usb_cdc_line_rtsdtr                               CMakeFiles/kiibohd.elf.dir/Output/pjrcUSB/arm/usb_serial.c.o
                                                  CMakeFiles/kiibohd.elf.dir/Output/pjrcUSB/arm/usb_dev.c.o
usb_cdc_transmit_flush_timer                      CMakeFiles/kiibohd.elf.dir/Output/pjrcUSB/arm/usb_serial.c.o
                                                  CMakeFiles/kiibohd.elf.dir/Output/pjrcUSB/arm/usb_dev.c.o
usb_charge_isr                                    CMakeFiles/kiibohd.elf.dir/Lib/mk20dx.c.o
usb_configuration                                 CMakeFiles/kiibohd.elf.dir/Output/pjrcUSB/arm/usb_dev.c.o
                                                  CMakeFiles/kiibohd.elf.dir/Output/pjrcUSB/arm/usb_serial.c.o
                                                  CMakeFiles/kiibohd.elf.dir/Output/pjrcUSB/arm/usb_mouse.c.o
                                                  CMakeFiles/kiibohd.elf.dir/Output/pjrcUSB/arm/usb_mem.c.o
                                                  CMakeFiles/kiibohd.elf.dir/Output/pjrcUSB/arm/usb_keyboard.c.o
                                                  CMakeFiles/kiibohd.elf.dir/Output/pjrcUSB/arm/usb_joystick.c.o
usb_configured                                    CMakeFiles/kiibohd.elf.dir/Output/pjrcUSB/arm/usb_dev.c.o
usb_descriptor_list                               CMakeFiles/kiibohd.elf.dir/Output/pjrcUSB/arm/usb_desc.c.o
                                                  CMakeFiles/kiibohd.elf.dir/Output/pjrcUSB/arm/usb_dev.c.o
usb_device_reload                                 CMakeFiles/kiibohd.elf.dir/Output/pjrcUSB/arm/usb_dev.c.o
                                                  CMakeFiles/kiibohd.elf.dir/Output/pjrcUSB/output_com.c.o
usb_endpoint_config_table                         CMakeFiles/kiibohd.elf.dir/Output/pjrcUSB/arm/usb_desc.c.o
                                                  CMakeFiles/kiibohd.elf.dir/Output/pjrcUSB/arm/usb_dev.c.o
usb_free                                          CMakeFiles/kiibohd.elf.dir/Output/pjrcUSB/arm/usb_mem.c.o
                                                  CMakeFiles/kiibohd.elf.dir/Output/pjrcUSB/arm/usb_serial.c.o
                                                  CMakeFiles/kiibohd.elf.dir/Output/pjrcUSB/arm/usb_dev.c.o
usb_init                                          CMakeFiles/kiibohd.elf.dir/Output/pjrcUSB/arm/usb_dev.c.o
                                                  CMakeFiles/kiibohd.elf.dir/Output/pjrcUSB/output_com.c.o
usb_isr                                           CMakeFiles/kiibohd.elf.dir/Output/pjrcUSB/arm/usb_dev.c.o
                                                  CMakeFiles/kiibohd.elf.dir/Lib/mk20dx.c.o
usb_joystick_data                                 CMakeFiles/kiibohd.elf.dir/Output/pjrcUSB/arm/usb_joystick.c.o
usb_joystick_send                                 CMakeFiles/kiibohd.elf.dir/Output/pjrcUSB/arm/usb_joystick.c.o
usb_keyboard_send                                 CMakeFiles/kiibohd.elf.dir/Output/pjrcUSB/arm/usb_keyboard.c.o
                                                  CMakeFiles/kiibohd.elf.dir/Output/pjrcUSB/output_com.c.o
usb_malloc                                        CMakeFiles/kiibohd.elf.dir/Output/pjrcUSB/arm/usb_mem.c.o
                                                  CMakeFiles/kiibohd.elf.dir/Output/pjrcUSB/arm/usb_serial.c.o
                                                  CMakeFiles/kiibohd.elf.dir/Output/pjrcUSB/arm/usb_mouse.c.o
                                                  CMakeFiles/kiibohd.elf.dir/Output/pjrcUSB/arm/usb_keyboard.c.o
                                                  CMakeFiles/kiibohd.elf.dir/Output/pjrcUSB/arm/usb_joystick.c.o
                                                  CMakeFiles/kiibohd.elf.dir/Output/pjrcUSB/arm/usb_dev.c.o
usb_mouse_buttons                                 CMakeFiles/kiibohd.elf.dir/Output/pjrcUSB/arm/usb_mouse.c.o
usb_mouse_buttons_state                           CMakeFiles/kiibohd.elf.dir/Output/pjrcUSB/arm/usb_mouse.c.o
usb_mouse_move                                    CMakeFiles/kiibohd.elf.dir/Output/pjrcUSB/arm/usb_mouse.c.o
usb_mouse_position                                CMakeFiles/kiibohd.elf.dir/Output/pjrcUSB/arm/usb_mouse.c.o
usb_mouse_screen_size                             CMakeFiles/kiibohd.elf.dir/Output/pjrcUSB/arm/usb_mouse.c.o
usb_reboot_timer                                  CMakeFiles/kiibohd.elf.dir/Output/pjrcUSB/arm/usb_dev.c.o
usb_rx                                            CMakeFiles/kiibohd.elf.dir/Output/pjrcUSB/arm/usb_dev.c.o
                                                  CMakeFiles/kiibohd.elf.dir/Output/pjrcUSB/arm/usb_serial.c.o
usb_rx_byte_count_data                            CMakeFiles/kiibohd.elf.dir/Output/pjrcUSB/arm/usb_dev.c.o
                                                  CMakeFiles/kiibohd.elf.dir/Output/pjrcUSB/arm/usb_serial.c.o
usb_rx_memory                                     CMakeFiles/kiibohd.elf.dir/Output/pjrcUSB/arm/usb_dev.c.o
                                                  CMakeFiles/kiibohd.elf.dir/Output/pjrcUSB/arm/usb_mem.c.o
usb_rx_memory_needed                              CMakeFiles/kiibohd.elf.dir/Output/pjrcUSB/arm/usb_dev.c.o
                                                  CMakeFiles/kiibohd.elf.dir/Output/pjrcUSB/arm/usb_mem.c.o
usb_serial_available                              CMakeFiles/kiibohd.elf.dir/Output/pjrcUSB/arm/usb_serial.c.o
                                                  CMakeFiles/kiibohd.elf.dir/Output/pjrcUSB/output_com.c.o
usb_serial_flush_callback                         CMakeFiles/kiibohd.elf.dir/Output/pjrcUSB/arm/usb_serial.c.o
                                                  CMakeFiles/kiibohd.elf.dir/Output/pjrcUSB/arm/usb_dev.c.o
usb_serial_flush_input                            CMakeFiles/kiibohd.elf.dir/Output/pjrcUSB/arm/usb_serial.c.o
usb_serial_flush_output                           CMakeFiles/kiibohd.elf.dir/Output/pjrcUSB/arm/usb_serial.c.o
usb_serial_getchar                                CMakeFiles/kiibohd.elf.dir/Output/pjrcUSB/arm/usb_serial.c.o
                                                  CMakeFiles/kiibohd.elf.dir/Output/pjrcUSB/output_com.c.o
usb_serial_peekchar                               CMakeFiles/kiibohd.elf.dir/Output/pjrcUSB/arm/usb_serial.c.o
usb_serial_putchar                                CMakeFiles/kiibohd.elf.dir/Output/pjrcUSB/arm/usb_serial.c.o
                                                  CMakeFiles/kiibohd.elf.dir/Output/pjrcUSB/output_com.c.o
usb_serial_read                                   CMakeFiles/kiibohd.elf.dir/Output/pjrcUSB/arm/usb_serial.c.o
usb_serial_write                                  CMakeFiles/kiibohd.elf.dir/Output/pjrcUSB/arm/usb_serial.c.o
                                                  CMakeFiles/kiibohd.elf.dir/Output/pjrcUSB/output_com.c.o
usb_string_cdc_data_name                          CMakeFiles/kiibohd.elf.dir/Output/pjrcUSB/arm/usb_desc.c.o
usb_string_cdc_status_name                        CMakeFiles/kiibohd.elf.dir/Output/pjrcUSB/arm/usb_desc.c.o
usb_string_joystick_name                          CMakeFiles/kiibohd.elf.dir/Output/pjrcUSB/arm/usb_desc.c.o
usb_string_keyboard_name                          CMakeFiles/kiibohd.elf.dir/Output/pjrcUSB/arm/usb_desc.c.o
usb_string_manufacturer_name                      CMakeFiles/kiibohd.elf.dir/Output/pjrcUSB/arm/usb_desc.c.o
usb_string_manufacturer_name_default              CMakeFiles/kiibohd.elf.dir/Output/pjrcUSB/arm/usb_desc.c.o
usb_string_mouse_name                             CMakeFiles/kiibohd.elf.dir/Output/pjrcUSB/arm/usb_desc.c.o
usb_string_nkro_keyboard_name                     CMakeFiles/kiibohd.elf.dir/Output/pjrcUSB/arm/usb_desc.c.o
usb_string_product_name                           CMakeFiles/kiibohd.elf.dir/Output/pjrcUSB/arm/usb_desc.c.o
usb_string_product_name_default                   CMakeFiles/kiibohd.elf.dir/Output/pjrcUSB/arm/usb_desc.c.o
usb_string_serial_number                          CMakeFiles/kiibohd.elf.dir/Output/pjrcUSB/arm/usb_desc.c.o
usb_string_serial_number_default                  CMakeFiles/kiibohd.elf.dir/Output/pjrcUSB/arm/usb_desc.c.o
usb_string_sys_ctrl_name                          CMakeFiles/kiibohd.elf.dir/Output/pjrcUSB/arm/usb_desc.c.o
usb_tx                                            CMakeFiles/kiibohd.elf.dir/Output/pjrcUSB/arm/usb_dev.c.o
                                                  CMakeFiles/kiibohd.elf.dir/Output/pjrcUSB/arm/usb_serial.c.o
                                                  CMakeFiles/kiibohd.elf.dir/Output/pjrcUSB/arm/usb_mouse.c.o
                                                  CMakeFiles/kiibohd.elf.dir/Output/pjrcUSB/arm/usb_keyboard.c.o
                                                  CMakeFiles/kiibohd.elf.dir/Output/pjrcUSB/arm/usb_joystick.c.o
usb_tx_byte_count                                 CMakeFiles/kiibohd.elf.dir/Output/pjrcUSB/arm/usb_dev.c.o
usb_tx_packet_count                               CMakeFiles/kiibohd.elf.dir/Output/pjrcUSB/arm/usb_dev.c.o
                                                  CMakeFiles/kiibohd.elf.dir/Output/pjrcUSB/arm/usb_serial.c.o
                                                  CMakeFiles/kiibohd.elf.dir/Output/pjrcUSB/arm/usb_mouse.c.o
                                                  CMakeFiles/kiibohd.elf.dir/Output/pjrcUSB/arm/usb_keyboard.c.o
                                                  CMakeFiles/kiibohd.elf.dir/Output/pjrcUSB/arm/usb_joystick.c.o
versionCLIDict_DescEntry                          CMakeFiles/kiibohd.elf.dir/Debug/cli/cli.c.o
wakeup_isr                                        CMakeFiles/kiibohd.elf.dir/Lib/mk20dx.c.o
watchdog_isr                                      CMakeFiles/kiibohd.elf.dir/Lib/mk20dx.c.o
yield                                             CMakeFiles/kiibohd.elf.dir/Lib/delay.c.o
                                                  CMakeFiles/kiibohd.elf.dir/Output/pjrcUSB/arm/usb_serial.c.o
                                                  CMakeFiles/kiibohd.elf.dir/Output/pjrcUSB/arm/usb_mouse.c.o
                                                  CMakeFiles/kiibohd.elf.dir/Output/pjrcUSB/arm/usb_keyboard.c.o
                                                  CMakeFiles/kiibohd.elf.dir/Output/pjrcUSB/arm/usb_joystick.c.o
